08000000 A _stext
08000000 T _vectors
08000188 t stm32_fpuconfig
080001d8 T __start
08000298 t rcc_reset
08000308 t stm32_stdclockconfig
08000418 t rcc_enableahb1
08000450 t rcc_enableahb2
08000480 t rcc_enableahb3
080004a0 t rcc_enableapb1
080004d8 t rcc_enableapb2
0800050c t rcc_enableperipherals
08000600 T stm32_clockconfig
08000780 T stm32_gpioread
080007d4 T stm32_gpiowrite
08000818 t stm32_gpioremap
08000838 T stm32_gpioinit
08000870 T stm32_configgpio
08000aac T stm32_unconfiggpio
08000ad8 T stm32_lowsetup
08000b68 T up_lowputc
08000ba0 t up_serialin
08000bcc t up_serialout
08000bfc t up_dma_rxint
08000c28 t up_dma_nextrx
08000c58 t up_detach
08000c90 t up_attach
08000cc8 t up_dma_receive
08000d44 t up_dma_rxavailable
08000d9c t up_send
08000de4 t up_interrupt_common
08000f78 t up_interrupt_uart5
08000fa8 t up_interrupt_usart2
08000fd8 t up_interrupt_usart1
08001008 t up_txready
0800104c t up_set_format
08001178 t up_ioctl
080012d0 t up_restoreusartint
08001380 t up_txint
080013d4 t up_setup
08001514 t up_disableusartint
08001580 t up_dma_setup
0800162c T up_serialinit
080016d8 T up_earlyserialinit
08001764 t up_dma_rxcallback
080017d0 T up_putc
0800186c t up_shutdown
080018fc t up_dma_shutdown
080019c4 T stm32_serial_dma_poll
08001b28 T __stack_overflow_trap
08001b2c T __cyg_profile_func_enter
08001b50 T __cyg_profile_func_exit
08001b54 T exception_common
08001bd0 t MEM_DataCopyTable
08001be0 t MEM_LongCopyTable
08001bec T memcpy
08001c00 t MEM_DataCopy5
08001c00 t MEM_DataCopyJump
08001c0c t MEM_DataCopy10
08001c18 t MEM_DataCopy15
08001c24 t MEM_DataCopy0
08001c2c t MEM_DataCopy0_1
08001c3c t MEM_DataCopy0_2
08001c48 t MEM_LongCopyJump
08001ca0 t MEM_LongCopyEnd
08001ca8 t MEM_DataCopyBytes
08001ce0 t MEM_DataCopy7
08001cec t MEM_DataCopy8
08001cf8 t MEM_DataCopy13
08001d04 t MEM_DataCopy2
08001d0c t MEM_DataCopy2_2
08001d74 t MEM_DataCopy2_1
08001d8e t MEM_DataCopy4
08001d8e t MEM_DataCopy6
08001d9a t MEM_DataCopy11
08001d9a t MEM_DataCopy9
08001da6 t MEM_DataCopy12
08001da6 t MEM_DataCopy14
08001db2 t MEM_DataCopy1
08001db2 t MEM_DataCopy3
08001de0 T up_prioritize_irq
08001e40 t stm32_irqinfo
08001ef4 T up_enable_irq
08001f2c T up_disable_irq
08001f64 T up_irqinitialize
08002038 T up_maskack_irq
08002084 t dmast_getreg
080020ac t dmast_putreg
080020dc t dmabase_putreg
08002114 t stm32_dmastream
0800214c t dmabase_getreg
0800217c t stm32_dmagive
080021a4 t stm32_dmatake
080021ec t stm32_dmamap
08002238 t stm32_dmainterrupt
08002368 T stm32_dmafree
080023a8 T stm32_dmaresidual
080023e8 t stm32_dmastreamdisable
0800246c T stm32_dmastop
08002494 W up_dmainitialize
080027d4 T stm32_dmastart
08002868 T stm32_dmasetup
08002a0c T stm32_dmachannel
08002aa8 t up_getsp
08002acc t up_stackdump
08002bbc t up_registerdump
08002c64 t _up_assert
08002cb4 t up_dumpstate
08002ebc T up_assert_code
08002f08 T up_assert
08002f4c T up_mdelay
08002f9c T up_doirq
08002ffc T up_hardfault
08003064 T up_svcall
080030cc T lib_lowvprintf
08003108 T lib_lowprintf
08003168 t llfixup
080031e8 t llutohex
08003550 t fixup
080035c4 t utohex
08003740 t prejustify
0800382c t zeroes
0800387c t postjustify
080038ec t llutobin
08003b04 t llutooct
08003d1c t utobin
08003ea8 t utooct
08004034 t llutodec
0800429c t utodec
08004478 t utoascii
0800476c t getusize
080047b0 t lib_dtoa
08004a4c t getdblsize
08004aa8 t llutoascii
0800509c t getllusize
080050e4 T lib_vsprintf
080057c8 T lib_lowoutstream
08005804 t lowoutstream_putc
08005834 T lib_nulloutstream
08005870 t nulloutstream_putc
08005898 t lo0bits
0800593c t hi0bits
080059a0 t cmp
08005a34 t Bfree
08005a68 t Balloc
08005ab4 t lshift
08005c78 t mult
08005e58 t i2b
08005eb8 t quorem
080061c8 t d2b
080063b8 t diff
08006674 t multadd
080067a8 t pow5mult
080068c0 T __dtoa
08008290 T lib_noflush
080082b0 T abort
080082c8 T strchr
08008308 T strlen
08008340 T sem_init
08008380 T cfgetspeed
080083a4 T cfsetspeed
080083cc T nsh_archinitialize
08008568 T matherr
08008588 T stm32_boardinitialize
080085b0 T up_ledoff
080085f4 T up_ledon
08008638 T up_ledinit
08008670 T stm32_spi2status
08008690 T stm32_spi2select
08008700 W stm32_spiinitialize
0800874c T stm32_usbsuspend
0800876c T hrt_cancel
080087b8 T hrt_called
080087e8 t hrt_latency_update
0800887c T ts_to_abstime
080088cc T hrt_absolute_time
08008930 t hrt_tim_init
08008a08 t hrt_call_reschedule
08008ae4 t hrt_call_enter
08008b4c t hrt_call_internal
08008bc4 t hrt_call_invoke
08008cac T hrt_call_every
08008db4 T hrt_call_after
08008eb4 T hrt_init
08008fb4 t hrt_tim_isr
0800908c T up_pwm_servo_arm
08009124 t pwm_timer_set_rate
08009168 T up_pwm_servo_get
080091f4 T up_pwm_servo_set
0800929c t pwm_timer_init
08009310 t pwm_channel_init
080093e0 T up_pwm_servo_init
080094f0 T up_pwm_servo_set_rate
080095d0 T up_pwm_servo_deinit
08009638 t _ZN3LED5ioctlEP4fileim
080096a8 t _ZN3LED4initEv
080096d4 t _ZN3LEDC1Ev
080096d4 t _ZN3LEDC2Ev
08009738 T drv_led_start
080097c0 T getprogname
080097e8 t warnerr_core
08009884 T vwarnx
080098b4 T vwarn
080098e8 T verrx
08009914 T errx
08009940 T verr
0800996c T err
08009998 T warnx
080099f0 T warn
08009a4c T perf_reset
08009ab8 T perf_reset_all
08009aec T perf_print_counter
08009ba8 T perf_print_all
08009bdc T perf_end
08009c6c T perf_count
08009d28 T perf_alloc
08009d98 T perf_begin
08009dcc T perf_free
08009e0c t param_assert_locked
08009e2c t handle_in_range
08009e7c t param_lock
08009e9c t param_unlock
08009ebc t param_compare_values
08009ef0 T param_get_default_file
08009f24 T param_for_index
08009f70 T param_count
08009fb8 t param_import_internal
0800a01c t param_notify_changes
0800a068 T param_set_default_file
0800a0a4 t param_find_changed
0800a140 T param_value_unsaved
0800a184 T param_value_is_default
0800a1b4 T param_foreach
0800a2cc T param_find
0800a384 T param_type
0800a3ec T param_name
0800a454 T param_get_index
0800a4b4 T param_reset_all
0800a584 t param_get_value_ptr
0800a64c T param_import
0800a6c0 T param_load
0800a73c T param_size
0800a810 T param_get
0800a87c t param_set_internal
0800aaf8 T param_set
0800ab28 t param_import_callback
0800ada0 T param_export
0800b128 T bson_encoder_buf_data
0800b154 T bson_encoder_buf_size
0800b190 T bson_decoder_data_pending
0800b1b4 t write_x
0800b260 t write_name
0800b2a0 t write_int32
0800b2d8 t write_int8
0800b310 t write_double
0800b348 t write_int64
0800b380 t read_x
0800b404 T bson_decoder_copy_data
0800b448 t read_int64
0800b478 t read_double
0800b4a8 t read_int32
0800b4d8 t read_int8
0800b508 T bson_encoder_init_buf
0800b580 T bson_encoder_init_file
0800b5e0 T bson_decoder_init_file
0800b654 T bson_decoder_init_buf
0800b6f8 T bson_encoder_fini
0800b798 T bson_encoder_append_string
0800b884 T bson_encoder_append_binary
0800b988 T bson_encoder_append_bool
0800ba5c T bson_encoder_append_double
0800bb34 T bson_encoder_append_int
0800bca0 T bson_decoder_next
0800bf7c T int16_t_from_bytes
0800bfac T sched_note_switch
0800c07c T sched_note_stop
0800c0fc T sched_note_start
0800c190 T cpuload_initialize_once
0800c240 T up_cxxinitialize
0800c2d4 T task_spawn
0800c32c T orb_set_interval
0800c364 T orb_check
0800c398 t _ZN12_GLOBAL__N_14infoEv
0800c3b8 t _ZN10ORBDevNode15update_deferredEv
0800c3e4 t _ZN10ORBDevNode10filp_to_sdEP4file
0800c408 T orb_copy
0800c454 t _ZN10ORBDevNode7publishEPK12orb_metadataiPKv
0800c4c8 T orb_unsubscribe
0800c4f4 t _ZN12_GLOBAL__N_114node_advertiseEPK12orb_metadata
0800c54c t _ZN12_GLOBAL__N_111node_mkpathEPcNS_6FlavorEPK12orb_metadata
0800c5a4 t _ZN12_GLOBAL__N_19test_failEPKcz
0800c61c t _ZN12_GLOBAL__N_19test_noteEPKcz
0800c690 t _ZN12ORBDevMasterD1Ev
0800c690 t _ZN12ORBDevMasterD2Ev
0800c6c0 t _ZN12ORBDevMasterC1EN12_GLOBAL__N_16FlavorE
0800c6c0 t _ZN12ORBDevMasterC2EN12_GLOBAL__N_16FlavorE
0800c724 t _ZN10ORBDevNodeC1EPK12orb_metadataPKcS4_
0800c724 t _ZN10ORBDevNodeC2EPK12orb_metadataPKcS4_
0800c77c t _ZN10ORBDevNode15appears_updatedEPNS_14SubscriberDataE
0800c7fc W _ZN6device6Device4lockEv
0800c828 W _ZN6device6Device6unlockEv
0800c854 t _ZN10ORBDevNodeD1Ev
0800c854 t _ZN10ORBDevNodeD2Ev
0800c888 t _ZN10ORBDevNode4readEP4filePcj
0800c914 t _ZN10ORBDevNode15poll_notify_oneEP6pollfdh
0800c964 t _ZN10ORBDevNode10poll_stateEP4file
0800c9b4 t _ZN10ORBDevNode5ioctlEP4fileim
0800ca6c t _ZN10ORBDevNode5closeEP4file
0800cac4 t _ZN10ORBDevNode26update_deferred_trampolineEPv
0800cb08 T orb_publish
0800cb84 t _ZN12ORBDevMaster5ioctlEP4fileim
0800ccb0 t _ZN10ORBDevNode4openEP4file
0800cdac t _ZN12_GLOBAL__N_19node_openENS_6FlavorEPK12orb_metadataPKvh
0800cee4 T orb_subscribe
0800cf14 T orb_advertise
0800cfe4 t _ZN12_GLOBAL__N_14testEv
0800d2b8 T uorb_main
0800d438 t _ZN10ORBDevNode5writeEP4filePKcj
0800d514 t _ZN6deviceL9cdev_pollEP4fileP6pollfdh
0800d550 t _ZN6deviceL10cdev_ioctlEP4fileim
0800d58c t _ZN6deviceL9cdev_seekEP4fileii
0800d5c8 t _ZN6deviceL10cdev_writeEP4filePKcj
0800d604 t _ZN6deviceL9cdev_readEP4filePcj
0800d640 t _ZN6deviceL10cdev_closeEP4file
0800d670 t _ZN6deviceL9cdev_openEP4file
0800d6a0 T _ZN6device4CDev17store_poll_waiterEP6pollfd
0800d714 T _ZN6device4CDev10poll_stateEP4file
0800d734 T _ZN6device4CDev11poll_notifyEh
0800d7d4 T _ZN6device4CDev5ioctlEP4fileim
0800d814 T _ZN6device4CDev4seekEP4fileii
0800d838 T _ZN6device4CDev5writeEP4filePKcj
0800d85c T _ZN6device4CDev4readEP4filePcj
0800d880 T _ZN6device4CDev10close_lastEP4file
0800d8a0 T _ZN6device4CDev10open_firstEP4file
0800d8c0 T _ZN6device4CDev18remove_poll_waiterEP6pollfd
0800d954 T _ZN6device4CDev15poll_notify_oneEP6pollfdh
0800d990 T _ZN6device4CDev4initEv
0800d9e4 T _ZN6device4CDevD1Ev
0800d9e4 T _ZN6device4CDevD2Ev
0800da20 T _ZN6device4CDevC1EPKcS2_i
0800da20 T _ZN6device4CDevC2EPKcS2_i
0800da7c T _ZN6device4CDev4pollEP4fileP6pollfdh
0800dc20 T _ZN6device4CDev5closeEP4file
0800dca0 T _ZN6device4CDev4openEP4file
0800dd24 T _ZN6device6Device5debugEPKcz
0800dd7c T _ZN6device6Device3logEPKcz
0800dde0 t _ZN6deviceL9interruptEiPv
0800de70 t _ZN6deviceL20unregister_interruptEi
0800df3c T _ZN6device6Device17interrupt_disableEv
0800df64 t _ZN6deviceL18register_interruptEiPNS_6DeviceE
0800e018 T _ZN6device6DeviceC1EPKci
0800e018 T _ZN6device6DeviceC2EPKci
0800e060 T _ZN6device6Device9interruptEPv
0800e09c T _ZN6device6DeviceD1Ev
0800e09c T _ZN6device6DeviceD2Ev
0800e1a0 T _ZN6device6Device4initEv
0800e268 T _ZN6device3I2C8transferEPKhjPhj
0800e380 T _ZN6device3I2C5probeEv
0800e3a0 T _ZN6device3I2C4initEv
0800e434 T _ZN6device3I2CD1Ev
0800e434 T _ZN6device3I2CD2Ev
0800e468 T _ZN6device3I2CC1EPKcS2_itji
0800e468 T _ZN6device3I2CC2EPKcS2_itji
0800e4c0 T close
0800e500 T ioctl
0800e570 T inode_checkflags
0800e5b4 T open
0800e6ac t file_read
0800e718 T read
0800e7a8 t file_write
0800e80c T write
0800e898 T files_addreflist
0800e8cc W files_initialize
0800e8ec t _files_semtake
0800e930 t _files_close
0800e97c T files_alloclist
0800e9b0 T files_releaselist
0800eaa4 T files_allocate
0800eb98 T files_dup
0800ece8 T files_close
0800edb8 T files_release
0800ee34 T inode_addref
0800ee64 T inode_find
0800eeb4 T inode_release
0800ef04 T register_driver
0800ef50 T unregister_driver
0800ef84 T unlink
0800eff8 T inode_nextname
0800f040 t _inode_compare
0800f0c0 T inode_semgive
0800f0ec T inode_semtake
0800f130 W fs_initialize
0800f168 T inode_search
0800f2a4 T inode_free
0800f804 t inode_unlink
0800f844 T inode_remove
0800f8e4 t inode_namelen
0800f928 t inode_namecpy
0800f96c t inode_insert
0800f9b0 t inode_alloc
0800fa4c T inode_reserve
0800fc0c t mmcsd_waitready
0800fc64 t mmcsd_checkwrprotect
0800fcb4 t mmcsd_xmitblock
0800fd30 t mmcsd_recvblock
0800fdbc t mmcsd_close
0800fddc t mmcsd_taac
0800fe34 t mmcsd_nsac
0800fe84 t mmcsd_semtake
0800fec8 t mmcsd_decodecsd
0801004c t mmcsd_sendcmd
080102dc t mmcsd_getcardinfo
080104c4 t mmcsd_setblklen
080104f8 t mmcsd_mediainitialize
08010874 T mmcsd_spislotinitialize
08010950 t mmcsd_geometry
08010a88 t mmcsd_open
08010b88 t mmcsd_mediachanged
08010c28 t mmcsd_read
08010db8 t mmcsd_write
08010fb8 t uart_pollnotify
08011014 t uart_ioctl
0801116c T uart_register
080111f4 t uart_takesem
0801126c t uart_irqwrite
08011304 T uart_datareceived
08011384 T uart_datasent
08011404 t uart_putxmitchar
080114e0 t uart_read
08011678 t uart_open
08011790 t uart_close
08011888 t uart_write
08011b20 t uart_poll
08011d04 T uart_recvchars
08011d98 T uart_xmitchars
08011e30 T cos
08011ee0 T sin
08011f98 T __fpclassifyf
08011ff4 T atan2
08011ff8 T sqrt
080120b4 T atan2f
080120b8 T sqrtf
08012170 T __ieee754_atan2
08012370 T __ieee754_rem_pio2
080127e8 T __ieee754_sqrt
080129ac T __ieee754_atan2f
08012b20 T __ieee754_sqrtf
08012bc0 T __kernel_cos
08012e30 T __kernel_rem_pio2
08013638 T __kernel_sin
080137b0 T atan
08013b38 T fabs
08013b50 T floor
08013ca0 T __fpclassifyd
08013d10 T nan
08013d20 T scalbn
08013e40 T atanf
08014000 T fabsf
08014010 T copysign
08014034 T __aeabi_drsub
0801403c T __aeabi_dsub
0801403c T __subdf3
08014040 T __adddf3
08014040 T __aeabi_dadd
080142b8 T __aeabi_ui2d
080142b8 T __floatunsidf
080142d8 T __aeabi_i2d
080142d8 T __floatsidf
080142fc T __aeabi_f2d
080142fc T __extendsfdf2
08014338 T __aeabi_ul2d
08014338 T __floatundidf
08014348 T __aeabi_l2d
08014348 T __floatdidf
080143a4 T __aeabi_dmul
080143a4 T __muldf3
080145f8 T __aeabi_ddiv
080145f8 T __divdf3
080147c8 T __gedf2
080147c8 T __gtdf2
080147d0 T __ledf2
080147d0 T __ltdf2
080147d8 T __cmpdf2
080147d8 T __eqdf2
080147d8 T __nedf2
08014854 T __aeabi_cdrcmple
08014864 T __aeabi_cdcmpeq
08014864 T __aeabi_cdcmple
08014874 T __aeabi_dcmpeq
08014888 T __aeabi_dcmplt
0801489c T __aeabi_dcmple
080148b0 T __aeabi_dcmpge
080148c4 T __aeabi_dcmpgt
080148d8 T __aeabi_d2iz
080148d8 T __fixdfsi
08014928 T __aeabi_d2f
08014928 T __truncdfsf2
080149c8 T __aeabi_uldivmod
080149f4 T __gnu_ldivmod_helper
08014a20 T __gnu_uldivmod_helper
08014a4c t _Unwind_decode_target2
08014a58 t selfrel_offset31
08014a6c t search_EIT_table
08014ad0 t get_eit_entry
08014b98 t restore_non_core_regs
08014bf0 t unwind_phase2_forced
08014cc4 t unwind_phase2
08014cf4 T _Unwind_VRS_Get
08014d1c t _Unwind_GetGR
08014d34 T _Unwind_VRS_Set
08014d5c t _Unwind_SetGR
08014d78 t __gnu_unwind_pr_common
08015094 W __aeabi_unwind_cpp_pr2
08015098 W __aeabi_unwind_cpp_pr1
0801509c T __aeabi_unwind_cpp_pr0
080150a0 T _Unwind_VRS_Pop
08015454 T _Unwind_GetCFA
08015458 T __gnu_Unwind_RaiseException
080154b8 T __gnu_Unwind_ForcedUnwind
080154cc T __gnu_Unwind_Resume
08015508 T __gnu_Unwind_Resume_or_Rethrow
08015518 T _Unwind_Complete
0801551c T _Unwind_DeleteException
0801552c T __gnu_Unwind_Backtrace
080155a0 T __restore_core_regs
080155a0 T restore_core_regs
080155b8 T __gnu_Unwind_Restore_VFP
080155c0 T __gnu_Unwind_Save_VFP
080155c8 T __gnu_Unwind_Restore_VFP_D
080155d0 T __gnu_Unwind_Save_VFP_D
080155d8 T __gnu_Unwind_Restore_VFP_D_16_to_31
080155e0 T __gnu_Unwind_Save_VFP_D_16_to_31
080155e8 T __gnu_Unwind_Restore_WMMXD
0801562c T __gnu_Unwind_Save_WMMXD
08015670 T __gnu_Unwind_Restore_WMMXC
08015684 T __gnu_Unwind_Save_WMMXC
08015698 T ___Unwind_RaiseException
08015698 T _Unwind_RaiseException
080156bc T ___Unwind_Resume
080156bc T _Unwind_Resume
080156e0 T ___Unwind_Resume_or_Rethrow
080156e0 T _Unwind_Resume_or_Rethrow
08015704 T ___Unwind_ForcedUnwind
08015704 T _Unwind_ForcedUnwind
08015728 T ___Unwind_Backtrace
08015728 T _Unwind_Backtrace
0801574c t next_unwind_byte
08015780 t _Unwind_GetGR.constprop.0
0801579c t unwind_UCB_from_context
080157a0 T __gnu_unwind_execute
08015a68 T __gnu_unwind_frame
08015a90 T _Unwind_GetRegionStart
08015a9c T _Unwind_GetLanguageSpecificData
08015ab0 T _Unwind_GetDataRelBase
08015ab8 T _Unwind_GetTextRelBase
08015ac0 W __aeabi_idiv0
08015ac0 W __aeabi_ldiv0
08015ac4 T __divdi3
08015d8c T __udivdi3
08016024 T os_start
080161b8 T os_bringup
08016260 T __errno
08016260 T get_errno_ptr
080162a8 T sched_getfiles
080162d8 T sched_getstreams
08016308 T sched_setupidlefiles
08016388 t thread_create
0801642c T kernel_thread
08016474 T task_create
080164bc T task_argsetup
080165c4 t task_assignpid
0801667c T task_schedsetup
08016798 T task_activate
080167e0 T task_start
08016844 T exit
08016870 T getpid
0801689c T sched_free
080168f4 T sched_gettcb
0801693c t sched_releasepid
0801697c T sched_releasetcb
08016a54 T sched_setscheduler
08016ac4 T sched_foreach
08016b1c T sched_lock
08016b64 T sched_unlock
08016bcc T sched_self
08016bf8 T sched_reprioritize
08016c2c T usleep
08016c94 T sem_destroy
08016cd8 T sem_wait
08016da8 T sem_post
08016e48 t sem_foreachholder
08016e88 t sem_freeholder
08016eb0 t sem_findholder
08016ee8 t sem_allocholder
08016f1c T sem_destroyholder
08016f44 T sem_releaseholder
08016f98 t sem_restoreholderprio
08017124 t sem_restoreholderprioB
08017170 t sem_restoreholderprioA
080171bc t sem_boostholderprio
08017270 T sem_canceled
080172b4 T sem_boostpriority
080172fc t sem_restorebaseprio_irq
08017340 t sem_restorebaseprio_task
0801742c T sem_addholder
080174cc t sem_findorallocateholder
08017538 T sem_restorebaseprio
08017678 t work_process
08017724 T work_lpthread
08017744 T work_hpthread
08017760 T work_signal
0801779c T irq_attach
080177f0 T irq_dispatch
08017834 T irq_unexpected_isr
0801786c W clock_timer
0801789c t clock_basetime
080178dc t clock_inittime
08017950 W clock_initialize
080179e4 T pthread_exit
08017a28 T pthread_destroyjoin
08017a68 t pthread_notifywaiters
08017ad8 T pthread_completejoin
08017b64 T pthread_findjoininfo
08017b98 T pthread_removejoininfo
08017c0c T sigprocmask
08017ca0 T kill
08017d20 T sigtimedwait
08017e90 t sig_timeout
08017ee4 T sig_unmaskpendingsignal
08017f64 T sig_removependingsignal
08017fd0 T sig_releasependingsignal
0801803c T sig_lowest
08018090 t sig_findpendingsignal
080180d4 t sig_allocatependingsignal
08018140 t sig_queueaction
080181d4 t sig_addpendingsignal
08018280 T sig_received
0801839c T sig_deliver
0801845c T mq_waitirq
080184c0 T env_dup
08018534 T env_release
0801857c T sched_garbagecollection
080185c4 T sched_setupstreams
0801860c t sched_dupfiles
0801866c T sched_setuptaskfiles
080186fc T sched_releasefiles
0801873c t task_exitwakeup
08018788 T task_exithook
080187fc T sched_verifytcb
08018838 T sched_setpriority
08018910 T wd_create
08018950 W wd_timer
080189cc T wd_start
08018b34 T wd_cancel
08018bcc T wd_delete
08018c24 T sem_waitirq
08018c84 W irq_initialize
08018cbc T pthread_givesemaphore
08018cf4 T pthread_takesemaphore
08018d40 W pthread_initialize
08018d90 T sig_allocateactionblock
08018e68 t sig_allocateblock
08018ef0 t sig_allocatependingsignalblock
08018f78 W sig_initialize
080193e8 T sig_pendingset
08019434 T sig_findaction
08019470 T sig_allocatependingsigaction
080194dc T sig_releasependingsigaction
08019548 T sig_cleanup
080195c4 T sched_addreadytorun
08019668 T sched_removereadytorun
080196c4 T sched_addprioritized
0801974c W wd_initialize
080197c0 T sig_releaseaction
080197f0 T up_addregion
0801981c T up_allocate_heap
0801985c t putreg16
08019888 t getreg16
080198b0 t spi_lock
08019914 t spi_getreg
08019960 t spi_putreg
080199b0 t spi_writeword
08019a34 t spi_16bitmode
08019a98 t spi_readword
08019b14 t spi_modifycr1
08019bc4 t spi_setbits
08019c10 t spi_setmode
08019c64 t spi_setfrequency
08019d00 t spi_portinitialize
08019da8 t spi_exchange
0801a058 T up_spiinitialize
0801a0fc t spi_send
0801a1fc t getreg16
0801a224 t putreg16
0801a250 t stm32_i2c_sem_wait
0801a298 t stm32_i2c_modifyreg
0801a2d0 t stm32_i2c_sem_post
0801a2fc t stm32_i2c_sem_destroy
0801a328 t stm32_i2c_sem_init
0801a358 t stm32_i2c_getreg
0801a3a0 t stm32_i2c_putreg
0801a3f0 t stm32_i2c_clrstart
0801a438 t stm32_i2c_sendstart
0801a484 t stm32_i2c_sendstop
0801a4d0 t stm32_i2c_sem_waitstop
0801a580 t stm32_i2c_getstatus
0801a61c t stm32_i2c_deinit
0801a6a8 T up_i2cuninitialize
0801a73c t stm32_i2c_setclock
0801a8c8 t stm32_i2c_init
0801a9b4 T up_i2cinitialize
0801aa68 t stm32_i2c_setaddress
0801aafc t stm32_i2c_setfrequency
0801ab78 T up_i2creset
0801ad74 t stm32_i2c_isr
0801b098 t stm32_i2c_sem_waitdone
0801b108 t stm32_i2c_process
0801b458 t stm32_i2c_transfer
0801b4c4 t stm32_i2c_writeread
0801b570 t stm32_i2c_read
0801b5f8 t stm32_i2c_write
0801b678 T up_idle
0801b69c T up_block_task
0801b738 T up_copystate
0801b77c T up_create_stack
0801b7d4 T up_udelay
0801b880 T _exit
0801b8ac T up_initialize
0801b8fc T up_initial_state
0801b968 T up_interrupt_context
0801b998 t getreg16
0801b9c0 t putreg16
0801b9ec T modifyreg16
0801ba6c T modifyreg32
0801bab0 T up_release_pending
0801bb00 T up_release_stack
0801bb30 T up_reprioritize_rtr
0801bbc8 T up_schedule_sigaction
0801bc84 T up_sigdeliver
0801bd04 T up_unblock_task
0801bd7c t stm32_req_remfirst
0801bdac t stm32_setaddress
0801be08 t stm32_epin_configure
0801becc t stm32_epout_configure
0801bf90 t stm32_ep0_configure
0801bfcc t stm32_ep0out_ctrlsetup
0801c010 t stm32_ep_clrstall
0801c078 t stm32_epin_setstall
0801c0c0 t stm32_enablegonak
0801c0f4 t stm32_disablegonak
0801c124 t stm32_req_addlast
0801c16c t stm32_txfifo_write
0801c22c t stm32_ep_configure
0801c280 t stm32_selfpowered
0801c2ac t stm32_getframe
0801c2d8 t stm32_ep_free
0801c320 t stm32_ep_alloc
0801c3c8 t stm32_req_dispatch
0801c418 t stm32_ep_findbyaddr
0801c470 t stm32_epin_runtestmode
0801c4c0 t stm32_rxfifo_discard
0801c520 t stm32_rxfifo_read
0801c5c4 t stm32_ep0in_activate
0801c608 t stm32_txfifo_flush
0801c658 t stm32_rxfifo_flush
0801c6a4 t stm32_pullup
0801c6f8 t stm32_wakeup
0801c75c t stm32_swinitialize
0801c8cc t stm32_ep_freereq
0801c8f4 t stm32_ep_allocreq
0801c934 t stm32_resumeinterrupt
0801c970 t stm32_suspendinterrupt
0801c99c t stm32_req_complete
0801ca10 t stm32_enuminterrupt
0801ca80 t stm32_epout_setstall
0801cb18 t stm32_ep_setstall
0801cb94 t stm32_ep0_stall
0801cc3c t stm32_epout_request
0801cd70 t stm32_ep_stall
0801ce64 t stm32_epout_complete
0801cf14 t stm32_epout
0801cfb4 t stm32_hwinitialize
0801d34c t stm32_epin_transfer
0801d4b4 t stm32_ep0in_setupresponse
0801d52c t stm32_ep0out_testmode
0801d634 t stm32_ep0in_transmitzlp
0801d6c0 t stm32_ep_flush
0801d77c t stm32_req_cancel
0801d8cc t stm32_usbreset
0801db5c T usbdev_unregister
0801dbf4 T up_usbuninitialize
0801ddcc T up_usbinitialize
0801de8c t stm32_ep_cancel
0801dec8 t stm32_epin_disable
0801dfe8 t stm32_epout_disable
0801e0ac t stm32_ep_disable
0801e0ec t stm32_epin_request
0801e258 t stm32_ep_submit
0801e308 t stm32_epin
0801e40c t stm32_epin_txfifoempty
0801e440 t stm32_epin_interrupt
0801e650 t stm32_ep0out_setup.part.1
0801ebb0 t stm32_ep0out_setup
0801ebe4 t stm32_epout_interrupt
0801ed54 t stm32_ep0out_receive
0801ef54 t stm32_epout_receive
0801f2ec t stm32_rxinterrupt
0801f748 t stm32_usbinterrupt
08020140 t stm32_ep0out_stdrequest
080205c0 T up_fullcontextrestore
080205ca T up_switchcontext
080205d8 T up_timerinit
08020640 T up_timerisr
08020664 T mm_addregion
08020710 T mm_initialize
08020790 T mm_givesemaphore
080207e8 T mm_takesemaphore
08020858 T mm_trysemaphore
080208bc T mm_seminitialize
08020908 T mm_addfreechunk
08020974 T mm_size2ndx
080209b8 T malloc
08020a54 T zalloc
08020a84 T calloc
08020ac0 T realloc
08020ccc T free
08020d7c T mm_shrinkchunk
08020dfc T printf
08020e40 T snprintf
08020e90 T lib_memoutstream
08020edc t memoutstream_putc
08020f14 T fwrite
08020f54 T lib_fwrite
080210e8 T fflush
08021134 T lib_flushall
080211f4 T lib_fflush
08021308 T lib_rdflush
0802137c T fputc
080213d0 T puts
08021440 T fputs
080214a0 T vprintf
080214d4 T fprintf
08021518 T vfprintf
08021568 T lib_stdoutstream
080215b4 T stdoutstream_flush
080215e0 t stdoutstream_putc
08021628 t med3
08021698 t swapfunc
0802182c T qsort
08022abc T memset
08022bd4 T memcmp
08022c6c T strcmp
08022cb0 T strdup
08022ce4 T strerror
08022d0c T strncpy
08022d70 T sem_getvalue
08022dac T sigemptyset
08022dd4 T sigaddset
08022e10 T sigdelset
08022e4c T sigismember
08022e80 T clock_calendar2utc
08022ecc T sq_addlast
08022f00 T sq_addfirst
08022f30 T sq_addafter
08022f6c T sq_rem
08022fc4 T sq_remfirst
08022ff4 T sq_remafter
08023034 T dq_addfirst
0802306c T dq_rem
080230a8 T lib_releaselist
08023144 T lib_addreflist
08023178 W lib_initialize
08023198 T lib_alloclist
08023240 T lib_give_semaphore
0802329c T lib_take_semaphore
08023300 T lib_sem_initialize
08023338 T stream_semgive
08023360 T stream_semtake
080233a4 T fseek
080233f8 T lib_wrflush
08023438 T strcpy
08023468 T mktime
080234e8 T clock_daysbeforemonth
0802351c T clock_isleapyear
08023588 T _ZdlPv
080235b0 T _ZdaPv
080235d8 T _Znwj
08023604 T _Znaj
08023630 T nsh_main
08023678 T nsh_initialize
080236a0 T nsh_romfsetc
0802370c T nsh_consolemain
080237b0 t readline_rawgetc
080237f8 t readline_consolewrite
0802382c t readline_consoleputc
08023870 T readline
08023a98 t cmd_exit
08023ab4 t nsh_cmdenabled
08023b20 t nsh_execute
08023bc8 t help_usage
08023c64 t help_showcmd
08023ca4 t help_cmdlist
08023fa0 t cmd_unrecognized
08023fd8 t nsh_saveresult
08024034 t nsh_cloneargs
080240d4 t nsh_releaseargs
0802412c t help_builtins
08024178 T nsh_argument
0802427c t nsh_nice
08024334 t help_allcmds
080243c4 t help_cmd
08024478 t nsh_ifthenelse
080246fc t nsh_child
08024778 t cmd_help
08024be4 T nsh_parse
0802555c T nsh_newconsole
080255d0 t nsh_consolelinebuffer
080255f4 t nsh_consoleredirect
08025630 t nsh_closeifnotclosed
08025694 t nsh_consoleundirect
080256c8 t nsh_openifnotopen
08025710 t nsh_consolerelease
08025740 t nsh_consoleexit
08025764 t nsh_consoleoutput
080257d8 t nsh_consolewrite
08025840 t nsh_consoleclone
080258c4 T nsh_script
08025984 T cmd_sh
080259b4 T cmd_rmdir
08025a24 T cmd_rm
08025a94 T cmd_mv
08025b2c T cmd_mkrd
08025ca8 T cmd_mkfifo
08025d20 T cmd_mkfatfs
08025da8 T cmd_mkdir
08025e20 t foreach_direntry
08025ea0 t ls_specialdir
08025ef0 t nsh_getdirpath
08025f54 T cmd_losetup
080260f4 t cat_common
08026204 T cmd_cat
080262f4 t trim_dir
08026370 t ls_handler
08026570 T cmd_cp
0802681c t ls_recursive
080269e0 T cmd_ls
08026ba0 t dd_filetype
08026be4 t dd_infcloseblk
08026c0c t dd_outfcloseblk
08026c34 t dd_readblk
08026c9c t dd_infclosech
08026cc4 t dd_outfclosech
08026cec t dd_readch
08026d6c t dd_writech
08026dd8 t dd_writeblk
08026e48 t dd_outfopen
08026f18 t dd_infopen
08027000 T cmd_dd
08027544 T cmd_usleep
0802759c t ps_task
080276bc T cmd_exec
08027720 T cmd_sleep
08027778 T cmd_kill
0802783c T cmd_ps
0802787c T cmd_free
080278d0 T cmd_unset
08027928 T cmd_echo
080279ac T cmd_set
08027a08 T nsh_freefullpath
08027a30 t nsh_getwd
08027a64 t nsh_getdirpath
08027b10 T nsh_getcwd
08027b5c T cmd_pwd
08027bcc T nsh_getfullpath
08027d14 T cmd_cd
08027e68 T nsh_dumpbuffer
080284e0 T cmd_hexdump
080285a0 T cmd_xd
0802860c T mem_parse
0802868c T cmd_mw
08028720 T cmd_mh
080287d0 T cmd_mb
08028870 T nsh_builtin
080288fc T cmd_umount
0802896c t mount_handler
080289d4 t df_handler
08028a24 t mount_show
08028a58 T cmd_df
08028aa8 T cmd_mount
08028c4c t unaryexpression
08028dc8 t binaryexpression
08028f10 t expression
080292e8 T cmd_lbracket
0802933c T cmd_test
08029374 t bultin_semtake
080293b4 t builtin_taskcreate
080293fc t builtin_proxy
080294c0 t builtin_startproxy
080295c8 T exec_builtin
08029740 T number_builtins
08029760 T reboot_main
08029774 T perf_main
080297d8 T top_main
08029e70 t load
08029f58 t usage
08029fb0 T mixer_main
0802a000 t do_save
0802a060 t do_load
0802a0b0 t do_import
0802a100 t do_show
0802a138 T param_main
0802a208 t do_show_print
0802a304 t led_off
0802a338 t led_on
0802a36c T delay_test_main
0802a5b4 t crc_init
0802a5dc t crc_init
0802a604 t crc_init
0802a62c t crc_init
0802a654 t crc_init
0802a67c t crc_init
0802a6a4 t crc_accumulate
0802a6e4 t crc_accumulate
0802a724 t crc_accumulate
0802a764 t crc_accumulate
0802a7a4 t crc_accumulate
0802a7e4 t crc_accumulate
0802a824 t mavlink_get_channel_buffer
0802a854 t mavlink_get_channel_status
0802a884 t mavlink_get_channel_status
0802a8b4 t get_mavlink_mode_and_state
0802a970 t usage
0802a9a0 T mavlink_main
0802aa9c t mavlink_dev_ioctl
0802aaf4 t mavlink_open_uart
0802aca0 t mavlink_update_system
0802ad60 t mavlink_send_uart_bytes
0802ad98 t set_mavlink_interval_limit
0802ae6c t set_hil_on_off
0802af60 t _mavlink_send_uart
0802afb0 t _mavlink_send_uart
0802afe4 t crc_calculate
0802b0c8 t crc_calculate
0802b1ac t crc_calculate
0802b290 t crc_calculate
0802b374 t crc_calculate
0802b458 t crc_accumulate_buffer
0802b56c t crc_accumulate_buffer
0802b680 t _mav_finalize_message_chan_send
0802b9d0 t _mav_finalize_message_chan_send
0802bcbc t mavlink_msg_heartbeat_send
0802c140 t mavlink_msg_heartbeat_send
0802c560 t mavlink_msg_sys_status_send
0802c8d4 t mavlink_thread_main
0802cd2c t mavlink_logbuffer_is_empty
0802cd58 t mavlink_logbuffer_is_full
0802cd88 t mavlink_logbuffer_init
0802cdc0 t mavlink_logbuffer_read
0802ce30 t mavlink_logbuffer_write
0802cea4 t mavlink_pm_start_queued_send
0802ced0 t mavlink_msg_param_set_decode
0802cf00 t mavlink_msg_param_request_read_decode
0802cf30 t mav_array_memcpy
0802cf64 t mav_array_memcpy
0802cf98 t mav_array_memcpy
0802cfcc t mavlink_msg_param_value_pack_chan
0802d188 t mavlink_finalize_message_chan
0802d33c t mavlink_finalize_message_chan
0802d4f0 t mavlink_finalize_message_chan
0802d6d4 t mavlink_pm_send_param
0802d8f8 t mavlink_pm_send_param_for_name
0802d928 t mavlink_pm_send_param_for_index
0802d958 t mavlink_pm_queued_send
0802d9a4 t mavlink_pm_message_handler
0802db14 t receive_start
0802db84 t mavlink_msg_command_long_decode
0802dbb4 t mavlink_msg_optical_flow_decode
0802dbe4 t mavlink_msg_set_mode_decode
0802dc14 t mavlink_msg_vicon_position_estimate_decode
0802dc44 t mavlink_msg_set_quad_swarm_roll_pitch_yaw_thrust_decode
0802dc74 t mavlink_msg_raw_imu_decode
0802dca4 t mavlink_msg_gps_raw_int_decode
0802dcd4 t mavlink_msg_raw_pressure_decode
0802dd04 t mavlink_msg_hil_state_decode
0802dd34 t mavlink_msg_manual_control_decode
0802dd64 t mavlink_start_checksum
0802dda4 t mavlink_update_checksum
0802de00 t handle_message
0802e96c t receive_thread
0802edd8 t mavlink_parse_char
0802f14c t mavlink_missionlib_get_system_timestamp
0802f178 t mavlink_msg_to_send_buffer
0802f1ac t mavlink_missionlib_send_message
0802f21c t mavlink_msg_statustext_pack
0802f3bc t mavlink_finalize_message
0802f57c t mavlink_finalize_message
0802f764 t mavlink_msg_statustext_encode
0802f90c t mavlink_missionlib_send_gcs_string
0802fb88 t mavlink_missionlib_current_waypoint_changed
0802fde4 t l_actuator_armed
0802fe24 t l_rc_channels
0802fe64 t uorb_receive_start
080300c4 t uorb_receive_thread
080301d0 t l_debug_key_value
080304c4 t mavlink_msg_attitude_send
0803078c t mavlink_msg_gps_global_origin_send
08030c2c t mavlink_msg_roll_pitch_yaw_rates_thrust_setpoint_send
08030ee4 t mavlink_msg_optical_flow_send
080311a4 t mavlink_msg_manual_control_send
08031630 t mavlink_msg_servo_output_raw_send
08031938 t mavlink_msg_hil_controls_send
08031c0c t mavlink_msg_roll_pitch_yaw_thrust_setpoint_send
08031ec8 t mavlink_msg_local_position_setpoint_send
08032480 t mavlink_msg_global_position_setpoint_int_send
080329c0 t mavlink_msg_local_position_ned_send
08032c8c t mavlink_msg_global_position_int_send
08032f48 t mavlink_msg_rc_channels_raw_send
08033228 t mavlink_msg_gps_raw_int_send
080334e0 t mavlink_msg_highres_imu_send
080337d4 t mavlink_msg_named_value_float_send
08033aa4 t mavlink_msg_gps_status_send
08033e78 t l_global_position
080341e0 t l_optical_flow
080344cc t l_home
080349a4 t l_vehicle_status
08034e58 t l_input_rc
080351f0 t l_local_position_setpoint
08035754 t l_sensor_combined
08035b3c t l_vehicle_attitude
08035e38 t l_local_position
08036128 t l_manual_control_setpoint
08036604 t l_vehicle_rates_setpoint
080368d8 t l_global_position_setpoint
08036e08 t l_attitude_setpoint
080370e0 t l_vehicle_attitude_controls
08037c48 t l_vehicle_gps_position
08038298 t l_actuator_outputs
0803919c t mavlink_msg_mission_ack_decode
080391cc t mavlink_msg_mission_set_current_decode
080391fc t mavlink_msg_mission_request_list_decode
0803922c t mavlink_msg_mission_request_decode
0803925c t mavlink_msg_mission_count_decode
0803928c t mavlink_msg_mission_item_decode
080392bc t mavlink_msg_mission_clear_all_decode
080392ec t mavlink_wpm_init
08039384 t mavlink_wpm_distance_to_point_local
08039418 t mavlink_wpm_distance_to_point_global_wgs84
080395c0 t mavlink_wpm_send_setpoint
0803962c t mavlink_msg_mission_current_encode
080398e4 t mavlink_msg_mission_count_encode
08039c08 t mavlink_wpm_send_waypoint_ack
08039f4c t mavlink_msg_mission_current_pack
0803a1e4 t mavlink_msg_mission_item_reached_pack
0803a47c t mavlink_msg_mission_request_pack
0803a788 t mavlink_msg_mission_item_pack
0803a994 t mavlink_msg_mission_count_pack
0803aca0 t mavlink_msg_mission_ack_pack
0803af7c t mavlink_msg_mission_ack_encode
0803b270 t mavlink_msg_mission_request_encode
0803b594 t mavlink_msg_mission_item_reached_encode
0803b84c t mavlink_wpm_send_waypoint_reached
0803bb38 t mavlink_msg_mission_item_encode
0803bd84 t mavlink_wpm_send_waypoint_count
0803c0f4 t mavlink_wpm_send_waypoint_current
0803c3a0 t check_waypoints_reached
0803c690 t mavlink_waypoint_eventloop
0803c73c t mavlink_wpm_send_waypoint_request
0803ca4c t mavlink_wpm_send_waypoint
0803ccfc t mavlink_wpm_message_handler
0803d4a4 t crc_init
0803d4cc t crc_init
0803d4f4 t crc_accumulate
0803d534 t crc_accumulate
0803d574 t get_mavlink_mode_and_state
0803d648 t mavlink_get_channel_buffer
0803d678 t mavlink_get_channel_status
0803d6a8 t usage
0803d6d8 T mavlink_onboard_main
0803d7cc t mavlink_open_uart
0803d978 t mavlink_update_system
0803d9fc t mavlink_send_uart_bytes
0803da34 t _mavlink_send_uart
0803da84 t crc_calculate
0803db68 t crc_accumulate_buffer
0803dc7c t _mav_finalize_message_chan_send
0803dfcc t mavlink_msg_heartbeat_send
0803e450 t mavlink_msg_sys_status_send
0803e7c4 t mavlink_thread_main
0803ea3c t receive_start
0803ea94 t mavlink_msg_command_long_decode
0803eac4 t mavlink_msg_optical_flow_decode
0803eaf4 t mavlink_msg_set_mode_decode
0803eb24 t mavlink_msg_vicon_position_estimate_decode
0803eb54 t mavlink_msg_set_quad_swarm_roll_pitch_yaw_thrust_decode
0803eb84 t mavlink_start_checksum
0803ebc4 t mavlink_update_checksum
0803ec20 t handle_message
0803efe0 t receive_thread
0803f41c t mavlink_parse_char
0803f790 t close_port
0803f7b8 t open_port
0803f7e4 t usage
0803f824 T gps_main
0803f900 t setup_port
0803fa18 t gps_thread_main
080401dc t ubx_checksum
08040218 t ubx_decode_init
08040260 t write_config_message_ubx
08040338 t configure_gps_ubx
080404f8 t ubx_watchdog_loop
080407d8 t ubx_parse
08041234 t read_gps_ubx
08041314 t ubx_loop
0804142c t mtk_checksum
08041468 t mtk_decode_init
080414a8 t configure_gps_mtk
08041550 t mtk_watchdog_loop
08041740 t mtk_parse
08041b08 t read_gps_mtk
08041be0 t mtk_loop
08041cac t nmea_watchdog_loop
08041e60 t ndeg2degree
08041ebc t read_gps_nmea
08041fa0 t nmea_loop
08042420 t nmea_property
08042448 t nmea_error
080424b8 t nmea_trace_buff
08042500 t nmea_zero_INFO
0804253c t nmea_GPVTG2info
08042578 t nmea_GPRMC2info
08042628 t nmea_GPGSA2info
080426ac t nmea_GPGGA2info
0804271c t nmea_parse_GPVTG
080427dc t nmea_parse_GPGSV
080428d0 t nmea_parse_GPGSA
0804299c t _nmea_parse_time
08042a40 t nmea_parse_GPRMC
08042b30 t nmea_parse_GPGGA
08042c0c t nmea_find_tail
08042d28 t nmea_pack_type
08042dcc t nmea_GPGSV2info
08042ed0 t nmea_parser_buff_clear
08042ef8 t nmea_parser_drop
08042f44 t nmea_parser_pop
08042f8c t nmea_parser_init
08042fe4 t nmea_parser_real_push
080431ac t nmea_parser_push
080431ec t nmea_parser_queue_clear
08043248 t nmea_parse
0804334c t nmea_parser_destroy
080433cc t nmea_time_now
08043418 t memchr
08043480 t nmea_atof
080434e0 t nmea_atoi
08043530 t nmea_scanf
080438d0 t print_sdlog_status
080439a8 t usage
080439d8 t file_exist
08043a08 t file_copy
08043ab8 t create_logfolder
08043ba0 t handle_command
08043c30 t sysvector_write_start
08043c88 t sdlog_sysvector_write_thread
08043d78 T sdlog_main
08043e58 t sdlog_thread_main
08044768 t sdlog_logbuffer_is_empty
08044794 t sdlog_logbuffer_is_full
080447c4 t sdlog_logbuffer_init
080447fc t sdlog_logbuffer_read
0804486c t sdlog_logbuffer_write
080448e0 t _ZN7Sensors5startEv
08044950 t _ZN7Sensors8adc_pollER17sensor_combined_s
08044aa0 t _ZN7Sensors19vehicle_status_pollEv
08044b00 t _ZN7Sensors9baro_pollER17sensor_combined_s
08044b58 t _ZN7Sensors8mag_pollER17sensor_combined_s
08044bc4 t _ZN7Sensors9gyro_pollER17sensor_combined_s
08044c2c t _ZN7Sensors10accel_pollER17sensor_combined_s
08044c94 t _ZN7Sensors8adc_initEv
08044cd8 t _ZN7Sensors9baro_initEv
08044d30 t _ZN7Sensors17parameters_updateEv
080452f4 t _ZN7Sensors21parameter_update_pollEh
08045448 t _ZN7SensorsD1Ev
08045448 t _ZN7SensorsD2Ev
080454b4 t _ZN7SensorsC1Ev
080454b4 t _ZN7SensorsC2Ev
080457b0 T sensors_main
080458b0 t _ZN7Sensors8mag_initEv
08045914 t _ZN7Sensors9gyro_initEv
08045984 t _ZN7Sensors10accel_initEv
080459f4 t _ZN7Sensors9task_mainEv
08045d50 t _ZN7Sensors20task_main_trampolineEiPPc
08045d70 T i2c_main
08045db4 t _ZN6bmp1804testEv
08045f24 t _ZN6bmp1809calibrateEj
080460ac t _ZN6bmp1805resetEv
0804611c t _ZN6BMP18010print_infoEv
08046298 t _ZN6bmp1804infoEv
080462d4 W _ZN6device3I2C11set_addressEt
080462fc t _ZN6BMP1809read_promEv
0804644c t _ZN6BMP1809cmd_resetEv
080464a4 t _ZN6BMP1807measureEv
08046500 t _ZN6BMP1807collectEv
08046890 t _ZN6BMP1805startEv
080468e0 t _ZN6BMP1804stopEv
0804690c t _ZN6BMP1804initEv
08046994 t _ZN6BMP180C1Ei
08046994 t _ZN6BMP180C2Ei
08046a7c t _ZN6BMP180D1Ev
08046a7c t _ZN6BMP180D2Ev
08046ad4 t _ZN6bmp1805startEv
08046b64 T bmp180_main
08046bf8 t _ZN6BMP18013probe_addressEh
08046c8c t _ZN6BMP1805probeEv
08046cc4 t _ZN6BMP1805cycleEv
08046df0 t _ZN6BMP18016cycle_trampolineEPv
08046e18 t _ZN6BMP1804readEP4filePcj
08047050 t _ZN6BMP1805ioctlEP4fileim
08047238 t _ZN7hmc58835resetEv
080472a8 t _ZN7hmc58839calibrateEv
08047314 t _ZN7hmc58834testEv
08047480 t _ZN7HMC588310print_infoEv
080474e8 t _ZN7hmc58834infoEv
08047524 t _ZN7HMC588312check_offsetEv
080475a4 t _ZN7HMC588311check_scaleEv
08047624 t _ZN7HMC58838read_regEhRh
08047668 t _ZN7HMC58839write_regEhh
080476b4 t _ZN7HMC58837collectEv
08047924 t _ZN7HMC58835startEv
08047970 t _ZN7HMC58834stopEv
0804799c t _ZN7HMC5883C1Ei
0804799c t _ZN7HMC5883C2Ei
08047a94 t _ZN7HMC5883D1Ev
08047a94 t _ZN7HMC5883D2Ev
08047aec t _ZN7hmc58835startEv
08047b7c T hmc5883_main
08047c04 t _ZN7HMC58837measureEv
08047c64 t _ZN7HMC588314set_excitementEj
08047d68 t _ZN7HMC58839set_rangeEj
08047f2c t _ZN7HMC58834initEv
08047fc4 t _ZN7HMC588317check_calibrationEv
0804817c t _ZN7HMC58839calibrateEP4filej
08048580 t _ZN7HMC58835probeEv
08048684 t _ZN7HMC58835cycleEv
0804879c t _ZN7HMC588316cycle_trampolineEPv
080487c4 t _ZN7HMC58834readEP4filePcj
080489ac t _ZN7HMC58835ioctlEP4fileim
08048bf4 t _ZN12MPU60x0_gyro5ioctlEP4fileim
08048c30 t _ZN12MPU60x0_gyro4readEP4filePcj
08048c6c t _ZN12MPU60x0_gyro18parent_poll_notifyEv
08048c98 t _ZN7MPU60x010print_infoEv
08048ccc t _ZN7mpu60x04infoEv
08048d08 t _ZN7mpu60x05resetEv
08048d78 t _ZN7mpu60x04testEv
08048fbc t _ZN12MPU60x0_gyroD1Ev
08048fbc t _ZN12MPU60x0_gyroD2Ev
08048fec t _ZN12MPU60x0_gyroC1EP7MPU60x0
08048fec t _ZN12MPU60x0_gyroC2EP7MPU60x0
08049034 t _ZN7MPU60x09write_regEhh
08049078 t _ZN7MPU60x08read_regEh
080490c0 t _ZN7MPU60x04stopEv
080490ec t _ZN7MPU60x0C1Ei
080490ec t _ZN7MPU60x0C2Ei
08049228 t _ZN7MPU60x0D1Ev
08049228 t _ZN7MPU60x0D2Ev
080492a8 t _ZN7mpu60x05startEv
08049358 T mpu60x0_main
080493c0 t _ZN7MPU60x05startEv
0804942c t _ZN7MPU60x05probeEv
080494c8 t _ZN7MPU60x07measureEv
080497d8 t _ZN7MPU60x018measure_trampolineEPv
08049800 t _ZN7MPU60x09self_testEv
08049834 t _ZN7MPU60x09gyro_readEP4filePcj
0804987c t _ZN7MPU60x04readEP4filePcj
080498c4 t _ZN7MPU60x010gyro_ioctlEP4fileim
080499d0 t _ZN7MPU60x04initEv
08049d28 t _ZN7MPU60x05ioctlEP4fileim
08049f70 t _ZN6BlinkM20get_firmware_versionEPh
08049fb0 t _ZN6BlinkM10set_scriptEhh
0804a008 t _ZN6BlinkM17write_script_lineEhhhhhh
0804a080 t _ZN6BlinkM11stop_scriptEv
0804a0c0 t _ZN6BlinkM11play_scriptEh
0804a10c t _ZN6BlinkM7set_rgbEhhh
0804a164 t _ZN6BlinkMD1Ev
0804a164 t _ZN6BlinkMD2Ev
0804a194 t _ZN6BlinkMC1Ei
0804a194 t _ZN6BlinkMC2Ei
0804a21c T blinkm_main
0804a39c t _ZN6BlinkM5probeEv
0804a400 t _ZN6BlinkM4initEv
0804a490 t _ZN6BlinkM11setLEDColorEi
0804a5bc t _ZN6BlinkM3ledEv
0804aa7c t _ZN6BlinkM14led_trampolineEPv
0804aaa4 t _ZN6BlinkM7setModeEi
0804ab50 t _ZN6BlinkM11play_scriptEPKc
0804acc0 t _ZN6BlinkM5ioctlEP4fileim
0804adf4 t _ZN12_GLOBAL__N_14testEv
0804aeec t _ZN3ADC7_sampleEj
0804afa8 t _ZN3ADC5_tickEv
0804afec t _ZN3ADC5ioctlEP4fileim
0804b010 t _ZN3ADC10close_lastEP4file
0804b03c t _ZN3ADC4readEP4filePcj
0804b08c t _ZN3ADC4initEv
0804b1b8 t _ZN3ADCD1Ev
0804b1b8 t _ZN3ADCD2Ev
0804b1ec t _ZN3ADCC1Ej
0804b1ec t _ZN3ADCC2Ej
0804b2e0 T adc_main
0804b360 t _ZN3ADC10open_firstEP4file
0804b3dc t _ZN3ADC16_tick_trampolineEPv
0804b434 t _ZN7NAVSTIK9gpio_readEv
0804b454 t _ZN7NAVSTIK10gpio_writeEji
0804b474 t _ZN7NAVSTIK17gpio_set_functionEji
0804b494 t _ZN7NAVSTIK10gpio_resetEv
0804b4b4 t _ZN7NAVSTIK16control_callbackEjhhRf
0804b4e8 t _ZN7NAVSTIK12set_pwm_rateEj
0804b51c t _ZN12_GLOBAL__N_14testEv
0804b5e8 t _ZN12_GLOBAL__N_14fakeEiPPc
0804b6cc t _ZN7NAVSTIK9task_mainEv
0804ba98 t _ZN7NAVSTIK20task_main_trampolineEiPPc
0804bab8 t _ZN7NAVSTIK8set_modeENS_4ModeE
0804bb3c t _ZN7NAVSTIKD1Ev
0804bb3c t _ZN7NAVSTIKD2Ev
0804bc1c t _ZN7NAVSTIKC1Ev
0804bc1c t _ZN7NAVSTIKC2Ev
0804bc8c t _ZN7NAVSTIK4initEv
0804bd4c t _ZN12_GLOBAL__N_112fmu_new_modeENS_8PortModeEi
0804be10 t _ZN7NAVSTIK10gpio_ioctlEP4fileim
0804bef4 t _ZN7NAVSTIK9pwm_ioctlEP4fileim
0804c14c t _ZN7NAVSTIK5ioctlEP4fileim
0804c1cc t _ZN12_GLOBAL__N_19fmu_startEv
0804c350 T fmu_main
0804c4ec t _ZN3HIL16control_callbackEjhhRf
0804c520 t _ZN3HIL12set_pwm_rateEj
0804c554 t _ZN12_GLOBAL__N_14testEv
0804c5a8 t _ZN12_GLOBAL__N_14fakeEiPPc
0804c66c t _ZN3HIL8set_modeENS_4ModeE
0804c71c t _ZN3HIL9task_mainEv
0804c9c4 t _ZN3HIL20task_main_trampolineEiPPc
0804c9e4 t _ZN3HIL4initEv
0804ca70 t _ZN3HILD1Ev
0804ca70 t _ZN3HILD2Ev
0804cb50 t _ZN3HILC1Ev
0804cb50 t _ZN3HILC2Ev
0804cbc0 t _ZN12_GLOBAL__N_112hil_new_modeENS_8PortModeEi
0804cc48 t _ZN3HIL9pwm_ioctlEP4fileim
0804ce8c t _ZN3HIL5ioctlEP4fileim
0804cf08 t _ZN12_GLOBAL__N_19hil_startEv
0804d088 T hil_main
0804d2a0 t test_adc
0804d3b0 t encode
0804d4a8 t decode
0804d4d0 t decode_callback
0804d804 t test_bson
0804d8c0 t test_float
0804dc70 t test_gpio
0804dcd4 t test_hrt
0804e0dc t test_ppm
0804e108 t test_tone
0804e1c8 t test_int
0804e258 t test_jig_voltages
0804e58c t test_led
0804e6d8 t baro
0804e79c t mag
0804e860 t gyro
0804e924 t accel
0804e9ec t test_sensors
0804ea70 t test_servo
0804ed94 t test_file
0804ee7c t test_sleep
0804eed8 t test_help
0804ef20 t test_jig
0804f194 t test_all
0804f408 t test_perf
0804f4c0 T tests_main
0804f558 t test_param
0804f630 t cycletime
0804f69c t test_time
0804f940 t test_uart_baudchange
0804fa64 t test_uart_console
0804fb1c t receive_loop
0804fb60 t test_uart_loopback
0804fd54 t test_uart_send
0804fe2c t _ZL10reboot_apmv
0804fe4c t _ZL12reboot_boardhPKN4Menu3argE
0804fe60 t _ZN9AP_ParamTIaL11ap_var_type1EEcvRaEv
0804fe84 t _ZL13print_enabledh
0804fed8 t _ZN7AP_AHRS15set_fly_forwardEh
0804ff00 t _ZNK9AP_ParamTIaL11ap_var_type1EE3getEv
0804ff24 t _ZN7Compass21set_board_orientationE8Rotation
0804ff4c t _ZL15print_hit_enterv
0804ff84 t _ZL11wrap_360_cdi
0804ffc8 t _ZN7AP_AHRS13set_barometerEP7AP_Baro
0804fff0 t _ZN11AP_Airspeed7enabledEv
0805001c t _ZN11AP_Airspeed15get_airspeed_cmEv
08050058 t _ZN9AP_ParamTIiL11ap_var_type3EEcvRiEv
0805007c t _ZN9AP_ParamTIsL11ap_var_type2EEcvRsEv
080500a0 t _ZN11AP_Airspeed12get_airspeedEv
080500d0 t _ZN17AP_InertialSensor8get_gyroEv
0805010c t _ZN17AP_InertialSensor9get_accelEv
08050148 t _ZN3GPS6statusEv
08050170 t _ZL10readSwitchv
08050228 t _ZL13test_wp_printP8Locationh
08050290 t _ZN9AP_ParamTIfL11ap_var_type4EEcvRfEv
080502b4 t _ZN9AP_ParamTIsL11ap_var_type2EEaSEs
080502dc t _ZL17print_flight_modeh
080503c8 t _ZL11print_commav
08050400 t _ZL14main_menu_helphPKN4Menu3argE
08050438 t _ZL11zero_eepromv
080504a4 t _ZL11setup_erasehPKN4Menu3argE
080504f4 t _ZL18print_radio_valuesv
08050744 t _ZNK9AP_ParamTIfL11ap_var_type4EE3getEv
08050774 t _ZNK9AP_ParamTIsL11ap_var_type2EE3getEv
08050798 t _ZL12print_switchhh
080507dc t _ZN9AP_ParamVI7Vector3IfEL11ap_var_type5EEcvRS1_Ev
08050800 t _ZN9AP_ParamTIaL11ap_var_type1EE3setEa
08050828 t _ZN9AP_ParamTIaL11ap_var_type1EEaSEa
08050850 t _ZN7Vector3IfEC1Efff
08050850 t _ZN7Vector3IfEC2Efff
08050894 t _ZN30AP_InertialSensor_UserInteractC1Ev
08050894 t _ZN30AP_InertialSensor_UserInteractC2Ev
080508c0 t _ZL18radio_input_switchv
0805094c t _ZL10print_donev
08050984 t _ZN9AP_ParamTIsL11ap_var_type2EE3setEs
080509ac t _ZN7Vector3IfEC1Ev
080509ac t _ZN7Vector3IfEC2Ev
080509d8 t _ZN8AP_ParamC1Ev
080509d8 t _ZN8AP_ParamC2Ev
080509fc t _ZN9AP_ParamTIfL11ap_var_type4EEaSEf
08050a30 t _ZN15DataFlash_ClassC1Ev
08050a30 t _ZN15DataFlash_ClassC2Ev
08050a5c t _ZN6FilterIfEC1Ev
08050a5c t _ZN6FilterIfEC2Ev
08050a88 t _ZN3GPSC1Ev
08050a88 t _ZN3GPSC2Ev
08050ab4 t _ZN7Matrix3IfE8identityEv
08050af0 t _ZL13pgm_read_bytePKv
08050b14 t _ZL13pgm_read_bytePKv
08050b38 t _ZL13pgm_read_bytePKv
08050b5c t _ZL13pgm_read_bytePKv
08050b80 t _ZL13pgm_read_bytePKv
08050ba4 t _ZN6FilterIiEC1Ev
08050ba4 t _ZN6FilterIiEC2Ev
08050bd0 t _ZN16FilterWithBufferIfLh7EE10get_sampleEh
08050c08 t _ZN16FilterWithBufferIfLh7EE5applyEf
08050c54 t _ZN13LowPassFilterIiE5resetEi
08050c88 t _ZN13LowPassFilterIiE17set_time_constantEff
08050cc8 t _ZN13LowPassFilterIiE5resetEv
08050cf0 t _ZN16FilterWithBufferIfLh7EE5resetEv
08050d28 t _ZN13LowPassFilterIiE5applyEi
08050d80 t _ZN13LowPassFilterIiE20set_cutoff_frequencyEff
08050dcc t _Z13board_voltagev
08050e10 t _Z12digitalWritehh
08050e48 t _Z7pinModehh
08050e80 t _Z6microsv
08050eb4 t _Z6millisv
08050ee8 t _Z13mavlink_delayj
08050f1c t _Z5delayj
08050f50 t _ZL13do_wait_delayv
08050f9c t _ZL18do_within_distancev
08050fd0 t _ZL20adjusted_altitude_cmv
0805100c t _ZN9AP_ParamTIiL11ap_var_type3EE3setEi
08051034 t _ZL12do_set_servov
08051084 t _ZL12do_set_relayv
080510a4 t _ZL16comm_get_txspace17mavlink_channel_t
080510fc t _ZL17telemetry_delayed17mavlink_channel_t
08051148 t _ZN7Compass11use_for_yawEv
0805118c t _ZL12send_meminfo17mavlink_channel_t
080511ac t _ZN3GPS14velocity_northEv
080511e8 t _ZN3GPS13velocity_eastEv
08051224 t _ZN3GPS13velocity_downEv
08051260 t _ZL16geofence_enabledv
08051300 t _ZL13send_simstate17mavlink_channel_t
08051320 t _ZN11AP_AHRS_DCM13wind_estimateEv
08051360 t _ZN11GCS_MAVLINK17reset_cli_timeoutEv
0805138c t _ZL21do_loiter_at_locationv
080513c4 t _ZN7Vector2IiEC1Ev
080513c4 t _ZN7Vector2IiEC2Ev
080513ec t _ZN7Vector2IiEC1Eii
080513ec t _ZN7Vector2IiEC2Eii
0805141c t _ZN9AP_ParamTIfL11ap_var_type4EE3setEf
08051450 t _ZL18comm_get_available17mavlink_channel_t
080514a8 t _ZL15comm_receive_ch17mavlink_channel_t
080514f4 t _ZN4Menu8set_portEPN6AP_HAL12BetterStreamE
08051520 t _ZN9GCS_Class4initEPN6AP_HAL10UARTDriverE
0805154c t _ZN9GCS_ClassC1Ev
0805154c t _ZN9GCS_ClassC2Ev
08051570 T ArduPlane_main
080515a8 t _ZL11wrap_180_cdi
080515f4 t _ZL13crash_checkerv
0805163c t _ZL20geofence_stickmixingv
08051688 t _ZL20stick_mixing_enabledv
080516ec t _ZN7AP_AHRS15yaw_initialisedEv
08051714 t _ZN7Vector2IfEC1Eff
08051714 t _ZN7Vector2IfEC2Eff
08051750 t _ZN7Vector2IfEmLEf
08051798 t _ZL17verify_wait_delayv
080517e4 t _ZL22verify_within_distancev
08051828 t _ZL13check_usb_muxv
08051848 t _ZL13resetPerfDatav
080518ac t _ZN11AP_Airspeed4initEPN6AP_HAL12AnalogSourceE
080518d4 t _ZL12map_baudrateaj
080519c8 t _ZN7AP_AHRS12set_airspeedEP11AP_Airspeed
080519f0 t _ZN11AP_AHRS_DCM14get_gyro_driftEv
08051a2c t _ZN11AP_AHRS_DCM14get_dcm_matrixEv
08051a68 t _ZN17AP_InertialSensor21set_board_orientationE8Rotation
08051a90 t _ZN7AP_Baro10accumulateEv
08051ab0 t _ZL12test_logginghPKN4Menu3argE
08051b60 t _ZL13print_dividerv
08051bb0 t _ZL12print_blankss
08051c04 t _ZL11test_eedumphPKN4Menu3argE
08051e74 t _ZL22get_cmd_with_index_raws
08051f30 t _ZL18get_cmd_with_indexs
08051f98 t _ZL19throttle_slew_limits
080520b0 t _Z18read_receiver_rssiv
0805211c t _ZL9test_modehPKN4Menu3argE
08052160 t _ZL10setup_modehPKN4Menu3argE
080521a4 t _ZL12process_logshPKN4Menu3argE
080521d0 t _ZL7run_cliPN6AP_HAL10UARTDriverE
08052224 t _ZL8strcmp_PPKcS0_
08052254 t _ZL8strcmp_PPKcS0_
08052284 t _ZL13setup_factoryhPKN4Menu3argE
080522e0 t _ZL12strcasecmp_PPKcS0_
08052310 t _ZL12strcasecmp_PPKcS0_
08052340 t _ZL12strcasecmp_PPKcS0_
08052370 t _ZL14print_log_menuv
08052708 t _ZL8Log_Readss
0805276c t _ZN15DataFlash_Class10ReadPacketEPvt
080527a4 t _ZL13Log_Read_Modev
080527ec t _ZL16Log_Read_Startupv
08052860 t _ZL19Log_Read_Nav_Tuningv
080529b0 t _ZL16Log_Read_Currentv
08052a64 t _ZN25AP_InertialSensor_NavstikC1Ev
08052a64 t _ZN25AP_InertialSensor_NavstikC2Ev
08052a94 t _ZL16reset_crosstrackv
08052ad4 t _ZL14Log_Write_Modeh
08052b20 t _ZL13Log_Write_CmdhP8Location
08052b98 t _ZL13update_eventsv
08052c28 t _ZL15do_repeat_relayv
08052c88 t mavlink_msg_heartbeat_send
08052ce4 t mavlink_msg_sys_status_send
08052d7c t mavlink_msg_attitude_send
08052dec t mavlink_msg_global_position_int_send
08052e5c t mavlink_msg_nav_controller_output_send
08052ed8 t mavlink_msg_gps_raw_int_send
08052f54 t mavlink_msg_rc_channels_scaled_send
08052fdc t mavlink_msg_rc_channels_raw_send
08053064 t mavlink_msg_servo_output_raw_send
080530e4 t mavlink_msg_vfr_hud_send
08053150 t mavlink_msg_raw_imu_send
080531d8 t mavlink_msg_scaled_pressure_send
08053234 t mavlink_msg_sensor_offsets_send
080532c8 t mavlink_msg_mission_current_send
08053304 t mavlink_msg_fence_status_send
08053354 t mavlink_msg_ahrs_send
080533c8 t mavlink_msg_hwstatus_send
0805340c t mavlink_msg_wind_send
08053460 t mavlink_msg_mission_request_send
080534ac t mavlink_msg_command_ack_send
080534f0 t mavlink_msg_mission_count_send
0805353c t mavlink_msg_mission_item_send
080535e8 t mavlink_msg_mission_ack_send
08053634 t mavlink_msg_fence_point_send
080536a0 t mav_array_memcpy
080536d4 t mavlink_msg_request_data_stream_decode
08053704 t mavlink_msg_command_long_decode
08053734 t mavlink_msg_set_mode_decode
08053764 t mavlink_msg_mission_request_list_decode
08053794 t mavlink_msg_mission_request_decode
080537c4 t mavlink_msg_mission_ack_decode
080537f4 t mavlink_msg_param_request_list_decode
08053824 t mavlink_msg_param_request_read_decode
08053854 t mavlink_msg_mission_clear_all_decode
08053884 t mavlink_msg_mission_set_current_decode
080538b4 t mavlink_msg_mission_count_decode
080538e4 t mavlink_msg_mission_write_partial_list_decode
08053914 t mavlink_msg_set_mag_offsets_decode
08053944 t mavlink_msg_mission_item_decode
08053974 t mavlink_msg_fence_point_decode
080539a4 t mavlink_msg_fence_fetch_point_decode
080539d4 t mavlink_msg_param_set_decode
08053a04 t mavlink_msg_rc_channels_override_decode
08053a34 t mavlink_msg_radio_decode
08053a64 t _ZN11GCS_MAVLINK17_count_parametersEv
08053ab0 t _ZL18Log_Write_Attitudev
08053b0c t _ZL13Log_Write_GPSv
08053b9c t _ZL14stabilize_rollf
08053c2c t _ZL17Log_Write_Currentv
08053ce8 t _ZL11init_rc_outv
08053e24 t _ZL10init_rc_inv
08053ef0 t _Z14failsafe_checkj
0805401c t _ZL15do_repeat_servohtsh
08054098 t _ZL22stabilize_stick_mixingv.part.9
080541f8 t _ZN7Compass11set_offsetsEiii
08054270 t _ZNK7Vector3IfEplERKS0_
080542f8 t _ZN8AP_ParamC1EPKNS_4InfoEt
080542f8 t _ZN8AP_ParamC2EPKNS_4InfoEt
08054364 t _ZN36AP_InertialSensor_UserInteractStreamC1EPN6AP_HAL12BetterStreamE
08054364 t _ZN36AP_InertialSensor_UserInteractStreamC2EPN6AP_HAL12BetterStreamE
080543b8 t _ZN9AP_ParamTIfL11ap_var_type4EE12set_and_saveEf
0805440c t _ZN13LowPassFilterIiEC1Ev
0805440c t _ZN13LowPassFilterIiEC2Ev
0805446c t _ZN15DataFlash_EmptyC1Ev
0805446c t _ZN15DataFlash_EmptyC2Ev
080544b8 t _ZN12AP_GPS_UBLOXC1Ev
080544b8 t _ZN12AP_GPS_UBLOXC2Ev
08054504 t _ZNK7Vector2IfEmiERKS0_
08054578 t _ZN17AP_InertialSensor16get_gyro_offsetsEv
080545cc t _ZN17AP_InertialSensor17get_accel_offsetsEv
08054620 t _ZN17AP_InertialSensor15get_accel_scaleEv
08054674 t _ZN9AP_ParamTIiL11ap_var_type3EE12set_and_saveEi
080546c0 t _ZL20Log_Write_Nav_Tuningv
080547ac t _ZN7AP_Baro19get_ground_pressureEv
080547f4 t _ZNK3PID2kPEv
0805483c t _ZNK3PID2kIEv
08054884 t _ZNK3PID2kDEv
080548cc t _ZN9AP_ParamTIsL11ap_var_type2EE12set_and_saveEs
08054918 t _ZN9AP_ParamTIsL11ap_var_type2EE22set_and_save_ifchangedEs
0805496c t _ZN9AP_ParamTIaL11ap_var_type1EE12set_and_saveEa
080549b8 t _ZNK7Vector2IfEmlEf
08054a20 t _ZL26get_fence_point_with_indexj
08054ac0 t _ZN9AP_ParamTIsL11ap_var_type2EEC1Ev
08054ac0 t _ZN9AP_ParamTIsL11ap_var_type2EEC2Ev
08054afc t _ZN11GCS_MAVLINKC1Ev
08054afc t _ZN11GCS_MAVLINKC2Ev
08054b90 t _ZN9AP_ParamTIfL11ap_var_type4EEC1Ev
08054b90 t _ZN9AP_ParamTIfL11ap_var_type4EEC2Ev
08054bcc t _ZN9AP_ParamTIiL11ap_var_type3EEC1Ev
08054bcc t _ZN9AP_ParamTIiL11ap_var_type3EEC2Ev
08054c08 t _ZN9AP_ParamTIaL11ap_var_type1EEC1Ev
08054c08 t _ZN9AP_ParamTIaL11ap_var_type1EEC2Ev
08054c44 t _ZN10RC_ChannelC1Eh
08054c44 t _ZN10RC_ChannelC2Eh
08054ca4 t _ZN9AP_CameraC1EP8AP_Relay
08054ca4 t _ZN9AP_CameraC2EP8AP_Relay
08054cf8 t _ZN11GCS_MAVLINK4initEPN6AP_HAL10UARTDriverE
08054d7c t _ZL12send_gps_raw17mavlink_channel_t
08054e50 t _ZL14send_servo_out17mavlink_channel_t
08054f58 t _ZL13send_radio_in17mavlink_channel_t
08055064 t _ZL13send_location17mavlink_channel_t
08055200 t _ZL26send_nav_controller_output17mavlink_channel_t
08055338 t _ZN16FilterWithBufferIfLh7EEC1Ev
08055338 t _ZN16FilterWithBufferIfLh7EEC2Ev
080553bc t _ZL9send_wind17mavlink_channel_t
08055484 t _ZL18calc_bearing_errorv
080554f4 t _ZNK3PID4imaxEv
08055530 t _ZN11GCS_MAVLINK14stream_triggerENS_7streamsE
080555f8 t _ZL17suppress_throttlev
080556b4 t _ZL26set_fence_point_with_indexR7Vector2IiEj
08055730 t _ZN7AP_AHRS4initEv
08055790 t _ZL18set_cmd_with_index8Locations
08055858 t _ZN7AP_AHRS11set_compassEP7Compass
080558b0 t _ZL13send_raw_imu217mavlink_channel_t
080559b0 t _ZL9print_PIDP3PID
08055af4 t _ZL14send_heartbeat17mavlink_channel_t
08055bd8 t _ZL14read_barometerv
08055c70 t _ZL17Log_Read_Attitudev
08055ce0 t _ZL12Log_Read_GPSv
08055dd0 t _ZL9send_ahrs17mavlink_channel_t
08055e94 t _ZL21Log_Write_Performancev
08056020 t _ZL13Log_Write_Rawv
080560ec t _ZL24Log_Write_Control_Tuningv
080561f4 t _ZL21send_current_waypoint17mavlink_channel_t
08056258 t _ZL13send_hwstatus17mavlink_channel_t
08056300 t _ZL12send_vfr_hud17mavlink_channel_t
08056498 t _ZL13set_guided_WPv
0805657c t _ZL16read_alt_to_holdv
080565e8 t _ZL20calc_airspeed_errorsv
08056798 t _ZL13read_airspeedv
080567c8 t _ZL21send_extended_status117mavlink_channel_tt
08056aac t _ZL24calc_gndspeed_undershootv
08056b38 t _ZL13calc_nav_rollv
08056c30 t _ZL15stabilize_pitchf
08056d08 t _ZL12calc_nav_yawff.part.10
08056dd4 t _ZL12calc_nav_yawff
08056e70 t _ZL16get_speed_scalerv
08056f58 t _ZN11AP_Airspeed3useEv
08056fc8 t _ZL12read_batteryv.part.0
080571e8 t _ZL12read_batteryv
08057228 t _ZL10set_servosv
08057770 t mavlink_msg_param_value_send
080577f4 t mavlink_msg_statustext_send
08057854 t _ZL18print_gyro_offsetsv
080578fc t _ZL13send_raw_imu317mavlink_channel_t
08057a78 t _ZL31print_accel_offsets_and_scalingv
08057b94 t _ZL20geofence_send_status17mavlink_channel_t
08057c08 t _ZL17send_fence_status17mavlink_channel_t
08057c30 t _ZL14send_radio_out17mavlink_channel_t
08057d48 t _ZL13send_raw_imu117mavlink_channel_t
08057f08 t _ZL23Log_Read_Control_Tuningv
0805814c t _ZL12Log_Read_Cmdv
080582a0 t _ZL20Log_Read_Performancev
08058528 t _ZL17update_crosstrackv
08058828 t _ZL13update_loiterv
08058988 t _ZN11AP_AHRS_DCM8get_gyroEv
08058a60 t _ZL13send_attitude17mavlink_channel_t
08058bd0 t _ZN11GCS_MAVLINK20queued_waypoint_sendEv
08058c44 t _ZL22stabilize_stick_mixingv
08058cc8 t _ZL20alt_control_airspeedv
08058d60 t _ZL15load_parametersv
08058e50 t _ZL11select_logshPKN4Menu3argE
080590f8 t _Z10flash_ledsh
08059170 t _ZL16update_GPS_lightv
08059230 t _ZN7log_RawC1Ev
08059230 t _ZN7log_RawC2Ev
0805928c t _ZN9AP_ParamVI7Vector3IfEL11ap_var_type5EEC1Ev
0805928c t _ZN9AP_ParamVI7Vector3IfEL11ap_var_type5EEC2Ev
080592ec t _ZN7Matrix3IfEC1Ev
080592ec t _ZN7Matrix3IfEC2Ev
08059360 t _ZN18AP_Compass_NavstikC1Ev
08059360 t _ZN18AP_Compass_NavstikC2Ev
080593bc t _ZL12Log_Read_Rawv
080594c4 t _ZL12log_callbackh
08059530 t _ZL13do_change_altv
0805960c t _ZL19calc_altitude_errorv
08059704 t _ZL17verify_change_altv
080597b4 t _ZN16DerivativeFilterIfLh7EEC1Ev
080597b4 t _ZN16DerivativeFilterIfLh7EEC2Ev
08059858 t _ZL13stabilize_yawf
08059a08 t _ZL18stabilize_trainingf
08059b70 t _ZL13calc_throttlev
08059de4 t _ZL14calc_nav_pitchv
08059f1c t _ZL13init_commandsv
08059fac t _ZL8dump_loghPKN4Menu3argE
0805a138 t _ZN11GCS_MAVLINK17queued_param_sendEv
0805a2f4 t _ZL15send_statustext17mavlink_channel_t
0805a374 t _ZL24mavlink_try_send_message17mavlink_channel_t10ap_messaget
0805a62c t _ZL20mavlink_send_message17mavlink_channel_t10ap_messaget
0805a720 t _Z17gcs_send_text_fmtPKcz
0805a7b4 t _ZL16control_failsafet
0805a898 t _ZL10read_radiov
0805abe8 t _ZL21trim_control_surfacesv
0805acfc t _ZL10trim_radiov
0805ad34 t _ZL32handle_process_condition_commandv
0805adc8 t _ZL15do_change_speedv
0805ae84 t _ZN11GCS_MAVLINK12send_messageE10ap_message
0805aeb8 t _Z17mavlink_send_text17mavlink_channel_t12gcs_severityPKc
0805af4c t _ZN11GCS_MAVLINK11send_text_PE12gcs_severityPKc
0805afcc t _ZL15gcs_send_text_P12gcs_severityPKc
0805b00c t _ZL14init_barometerv
0805b0a8 t _ZL13zero_airspeedv
0805b0e4 t _ZL11demo_servosh
0805b1b8 t _ZL13do_erase_logsv
0805b200 t _ZL11set_next_WPP8Location
0805b360 t _ZL10do_takeoffv
0805b3ec t _ZL9do_nav_wpv
0805b418 t _ZL7do_landv
0805b444 t _ZL19do_loiter_unlimitedv
0805b470 t _ZL15do_loiter_turnsv
0805b4b4 t _ZL14do_loiter_timev
0805b508 t _Z9init_homev
0805b5dc t _ZL11do_set_homev
0805b654 t _ZL10verify_RTLv
0805b6a8 t _ZL13verify_nav_wpv
0805b798 t _ZL10erase_logshPKN4Menu3argE
0805b810 t _ZL18startup_INS_groundh
0805b9ec t _ZL11setup_levelhPKN4Menu3argE
0805ba14 t _ZL9stabilizev
0805bb58 t _ZN3PIDC1ERKfS1_S1_RKs
0805bb58 t _ZN3PIDC2ERKfS1_S1_RKs
0805bc88 t _ZN7AP_BaroC1Ev
0805bc88 t _ZN7AP_BaroC2Ev
0805bda8 t _ZN15AP_Baro_NavstikC1Ev
0805bda8 t _ZN15AP_Baro_NavstikC2Ev
0805bdd8 t _ZN7AP_AHRSC1EP17AP_InertialSensorRP3GPS
0805bdd8 t _ZN7AP_AHRSC2EP17AP_InertialSensorRP3GPS
0805bf38 t _ZN11AP_AHRS_DCMC1EP17AP_InertialSensorRP3GPS
0805bf38 t _ZN11AP_AHRS_DCMC2EP17AP_InertialSensorRP3GPS
0805c1a0 t _ZN11AP_AirspeedC1Ev
0805c1a0 t _ZN11AP_AirspeedC2Ev
0805c234 t _ZL24verify_condition_commandv
0805c318 t _ZL17Log_Write_Startuph
0805c450 t _ZL6do_RTLv
0805c540 t _ZL22handle_process_nav_cmdv
0805c628 t _ZL18handle_no_commandsv
0805c6d4 t _ZL7do_jumpv
0805c950 t _ZL25handle_process_do_commandv
0805ca14 t _ZL23process_non_nav_commandv
0805ca50 t _ZL19verify_loiter_turnsv
0805cb0c t _ZL21geofence_check_minaltv
0805cbf4 t _ZL21geofence_check_maxaltv
0805ccdc t _ZL19report_batt_monitorv
0805cda8 t _ZL18setup_batt_monitorhPKN4Menu3argE
0805ce30 t _ZL16gcs_send_message10ap_message
0805cea0 t _ZL13geofence_loadv
0805cfcc t _ZL15one_second_loopv
0805d060 t _ZN11GCS_MAVLINK16data_stream_sendEv
0805d408 t _ZL20gcs_data_stream_sendv
0805d43c t _ZL19verify_loiter_unlimv
0805d4c4 t _ZL18verify_loiter_timev
0805d580 t _ZL11verify_landv
0805d758 t _ZL14report_compassv
0805d8b8 t _ZL17setup_declinationhPKN4Menu3argE
0805d8f4 t _ZL13setup_compasshPKN4Menu3argE
0805da28 t _ZL12report_radiov
0805da8c t _ZL12report_gainsv
0805dba0 t _ZL13report_xtrackv
0805dc5c t _ZL15report_throttlev
0805dd3c t _ZL19report_flight_modesv
0805ded4 t _ZL10report_insv
0805df3c t _ZL10setup_showhPKN4Menu3argE
0805e07c t _ZN14RC_Channel_auxC1Eh
0805e07c t _ZN14RC_Channel_auxC2Eh
0805e110 t _ZN10ParametersC1Ev
0805e110 t _ZN10ParametersC2Ev
0805ea24 t _Z41__static_initialization_and_destruction_0ii
0805ebb4 t _Z41__static_initialization_and_destruction_0ii
0805ec54 t _Z41__static_initialization_and_destruction_0ii
0805ef2c t _Z41__static_initialization_and_destruction_0ii
0805ef84 t _Z41__static_initialization_and_destruction_0ii
0805eff0 t _GLOBAL__sub_I_cliSerial
0805f01c t _ZL14verify_takeoffv
0805f158 t _ZL18verify_nav_commandv
0805f234 t _ZL15verify_commandsv
0805f320 t _ZL17update_navigationv
0805f364 t _ZL8navigatev
0805f480 t _ZL12test_batteryhPKN4Menu3argE
0805f624 t _ZL13test_failsafehPKN4Menu3argE
0805fa60 t _ZL17setup_flightmodeshPKN4Menu3argE
0805fd28 t _ZL13test_airspeedhPKN4Menu3argE
0805fecc t _ZL11setup_radiohPKN4Menu3argE
08060184 t _ZL8test_maghPKN4Menu3argE
08060574 t _ZL11test_rawgpshPKN4Menu3argE
080606cc t _ZL9test_xbeehPKN4Menu3argE
08060788 t _ZL8test_inshPKN4Menu3argE
08060a68 t _ZL8test_gpshPKN4Menu3argE
08060b70 t _ZL15test_modeswitchhPKN4Menu3argE
08060cf8 t _ZL7test_wphPKN4Menu3argE
08060ec4 t _ZL10test_relayhPKN4Menu3argE
08060fb8 t _ZL13test_passthruhPKN4Menu3argE
08061318 t _ZL10test_radiohPKN4Menu3argE
0806143c t _ZL14test_radio_pwmhPKN4Menu3argE
08061530 t _ZL17setup_accel_scalehPKN4Menu3argE
080616dc t _ZL20process_next_commandv
08061a88 t _ZL15update_commandsv
08061ad8 t _ZL11update_autov
08061bb0 t _ZL8set_mode10FlightMode
08061cbc t _ZL23failsafe_short_on_events
08061d48 t _ZL22failsafe_long_on_events
08061dd4 t _ZL19check_long_failsafev
08061ea8 t _ZL9slow_loopv
08061f7c t _ZL14startup_groundv
08062070 t _Z14change_commandh
080621e4 t _ZL19read_control_switchv
080623ec t _ZL20reset_control_switchv
0806241c t _ZL14init_ardupilotv
08062a04 t _Z5setupv
08062b18 t _ZL24failsafe_short_off_eventv
08062b98 t _ZL20check_short_failsafev
08062be4 t _ZL14geofence_checkh
08062e84 t _ZL10update_GPSv
08062f50 t _ZL10update_altv
08063020 t _ZN11GCS_MAVLINK13handleMessageEP17__mavlink_message
08064330 t _ZN11GCS_MAVLINK6updateEv
08064500 t _ZL10gcs_updatev
08064534 t _ZL16mavlink_delay_cbv
080646f4 t _ZL11medium_loopv
080648c0 t _ZL26update_current_flight_modev
08064ec8 t _ZL9fast_loopv
080650a0 t _Z4loopv
080651d0 t _ZL13test_pressurehPKN4Menu3argE
08065448 t _ZNK9AP_ParamVI7Vector3IfEL11ap_var_type5EE3getEv
08065484 t _ZN9AP_ParamVI7Vector3IfEL11ap_var_type5EE3setES1_
080654c0 t _ZN9AP_ParamVI7Vector3IfEL11ap_var_type5EE12set_and_saveES1_
0806552c t _ZN7AP_AHRS8add_trimEffh
08065630 t _ZN7AP_AHRS8set_trimE7Vector3IfE
080656bc t _ZN11AP_AHRS_DCM13get_error_yawEv
08065710 t _ZN11AP_AHRS_DCM12get_error_rpEv
08065764 t _ZN7Vector3IfEmLEf
080657b8 t _ZN7AP_Baro20get_pressure_samplesEv
080657dc t _ZN7Vector3IfEdVEf
08065838 t _ZN7Vector3IfEpLERKS0_
0806588c t _ZN7Vector3IfE4zeroEv
080658b8 t _ZN11AP_AHRS_DCM12get_positionEP8Location
08065908 t _ZN11AP_AHRS_DCM12euler_anglesEv
08065994 t _ZN11AP_AHRS_DCM7_P_gainEf
08065a04 t _ZN11AP_AHRS_DCM13yaw_error_gpsEv
08065a60 t _ZN7Vector3IfE6is_nanEv
08065ab4 t _ZN7Vector3IfE6is_infEv
08065b08 t _ZNK7Vector3IfEmiERKS0_
08065b90 t _ZNK7Matrix3IfE4colxEv
08065bf0 t _ZNK7Vector3IfEmlEf
08065c68 t _ZNK7Vector3IfEdvEf
08065ce8 t _ZN7Vector3IfE9normalizeEv
08065d60 t _ZN11AP_AHRS_DCM8have_gpsEv
08065dc4 t _ZN11AP_AHRS_DCM5resetEh
08065eb0 t _ZN11AP_AHRS_DCM17yaw_error_compassEv
08066048 t _ZN11AP_AHRS_DCM17airspeed_estimateEPf
0806622c t _ZN7Matrix3IfE6is_nanEv
080662f8 t _ZN11AP_AHRS_DCM13matrix_updateEf
0806645c t _ZN11AP_AHRS_DCM6renormERK7Vector3IfERS1_
08066548 t _ZN11AP_AHRS_DCM9normalizeEv
08066718 t _ZN11AP_AHRS_DCM20drift_correction_yawEv
08066adc t _ZN11AP_AHRS_DCM12check_matrixEv
08066ce8 t _ZN11AP_AHRS_DCM13estimate_windER7Vector3IfE
08067260 t _ZN11AP_AHRS_DCM16drift_correctionEf
08067ecc t _ZN11AP_AHRS_DCM6updateEv
08067fe0 t _ZN11AP_Airspeed4readEv
080680e4 t _ZN11AP_Airspeed9calibrateEv
0806828c t _ZN7AP_Baro14get_climb_rateEv
080682cc t _ZN7AP_Baro12get_altitudeEv
0806836c t _ZN7AP_Baro9calibrateEv
08068558 t _ZN21AP_Baro_MS5611_SerialC1Ev
08068558 t _ZN21AP_Baro_MS5611_SerialC2Ev
08068584 t _ZN18AP_Baro_MS5611_I2C8sem_giveEv
080685b0 t _ZN18AP_Baro_MS5611_I2C20sem_take_nonblockingEv
08068614 t _ZN18AP_Baro_MS5611_I2C17sem_take_blockingEv
08068644 t _ZN18AP_Baro_MS5611_I2C5writeEh
08068688 t _ZN18AP_Baro_MS5611_I2C8read_adcEv
080686e0 t _ZN18AP_Baro_MS5611_I2C11read_16bitsEh
08068730 t _ZN18AP_Baro_MS5611_SPI8sem_giveEv
0806875c t _ZN18AP_Baro_MS5611_SPI20sem_take_nonblockingEv
080687c0 t _ZN18AP_Baro_MS5611_SPI17sem_take_blockingEv
080687f0 t _ZN18AP_Baro_MS5611_SPI5writeEh
08068828 t _ZN18AP_Baro_MS5611_SPI11read_16bitsEh
08068878 t _ZN18AP_Baro_MS5611_SPI4initEv
080688d8 t _ZN21AP_Baro_MS5611_Serial8sem_giveEv
080688f8 t _ZN21AP_Baro_MS5611_Serial17sem_take_blockingEv
08068918 t _ZN21AP_Baro_MS5611_Serial20sem_take_nonblockingEv
08068938 t _ZN18AP_Baro_MS5611_SPI8read_adcEv
08068984 t _ZN18AP_Baro_MS5611_I2C4initEv
080689d0 t _ZN18AP_Baro_MS5611_I2CC1Ev
080689d0 t _ZN18AP_Baro_MS5611_I2CC2Ev
08068a1c t _ZN18AP_Baro_MS5611_SPIC1Ev
08068a1c t _ZN18AP_Baro_MS5611_SPIC2Ev
08068a68 t _GLOBAL__sub_I__ZN14AP_Baro_MS56115_s_D1E
08068a94 t _ZN15AP_Baro_Navstik12get_raw_tempEv
08068ac4 t _ZN15AP_Baro_Navstik16get_raw_pressureEv
08068af4 t _ZN15AP_Baro_Navstik15get_temperatureEv
08068b24 t _ZN15AP_Baro_Navstik12get_pressureEv
08068b54 t _ZN15AP_Baro_Navstik4readEv
08068bec t _ZN15AP_Baro_Navstik11_accumulateEv
08068c94 t _ZN15AP_Baro_Navstik10accumulateEv
08068cb8 t _ZN15AP_Baro_Navstik4initEv
08068d48 t _ZN15AP_Baro_Navstik11_baro_timerEj
08068d9c t _ZN9AP_Camera14transistor_picEv
08068dd8 t mavlink_msg_digicam_control_decode
08068e08 t mavlink_msg_digicam_configure_decode
08068e38 t mavlink_msg_digicam_control_send
08068ec4 t mavlink_msg_digicam_configure_send
08068f58 t _ZN9AP_Camera9relay_picEv
08068fac t _ZN9AP_Camera9servo_picEv
0806901c t _ZN9AP_Camera19trigger_pic_cleanupEv
080690b0 t _ZN9AP_Camera13configure_msgEP17__mavlink_message
08069194 t _ZN9AP_Camera12distance_picEv
08069218 t _ZN9AP_Camera12throttle_picEv
080692a0 t _ZN9AP_Camera11trigger_picEv
08069488 t _ZN9AP_Camera11control_msgEP17__mavlink_message
08069574 t _ZN18AP_Compass_Navstik4initEv
0806961c t _ZN18AP_Compass_Navstik10accumulateEv
080696e0 t _ZN18AP_Compass_Navstik4readEv
080698a4 t _ZN7Vector3IsEC1Esss
080698a4 t _ZN7Vector3IsEC2Esss
080698dc t _ZN7Compass15set_orientationE8Rotation
08069904 t _ZN7Compass4initEv
08069924 t _ZN7Vector3IsEC1Ev
08069924 t _ZN7Vector3IsEC2Ev
08069950 t _ZN7Compass12save_offsetsEv
0806997c t _ZN7Compass11get_offsetsEv
080699b8 t _ZN7Compass15get_declinationEv
08069a00 t _ZN7Compass11set_offsetsERK7Vector3IfE
08069a58 t _ZN7Compass20set_initial_locationEii
08069ae0 t _ZN7Compass17calculate_headingEff
08069bfc t _ZN7Compass17calculate_headingERK7Matrix3IfE
08069d40 t _ZN7Compass15set_declinationEf
08069db0 t _ZN7CompassC1Ev
08069db0 t _ZN7CompassC2Ev
08069f14 t _ZN7Compass12null_offsetsEv
0806a47c t _ZL17pgm_read_byte_farPKv
0806a4a0 t _ZL8memcpy_PPvPKcj
0806a4d8 t _ZN14AP_Declination16get_lookup_valueEhh
0806a734 t _ZN14AP_Declination15get_declinationEff
0806a89c t _ZN3GPS7get_lagEv
0806a8c0 t _ZN12AP_GPS_UBLOX16_update_checksumEPhhRhS1_
0806a958 t _ZN12AP_GPS_UBLOX7get_lagEv
0806a97c t _ZN12AP_GPS_UBLOX13_send_messageEhhPvh
0806aad4 t _ZN12AP_GPS_UBLOX23_configure_message_rateEhhh
0806ab20 t _ZN12AP_GPS_UBLOX14_configure_gpsEv
0806ac98 t _ZN12AP_GPS_UBLOX4initEPN6AP_HAL10UARTDriverEN3GPS18GPS_Engine_SettingE
0806ace8 t _ZN12AP_GPS_UBLOX10_parse_gpsEv
0806af10 t _ZN12AP_GPS_UBLOX4readEv
0806b0f8 t _ZN3GPS6setHILEjffffffh
0806b118 t _ZN3GPS6updateEv
0806b238 t _ZN3GPS20_write_progstr_blockEPN6AP_HAL10UARTDriverEPKch
0806b30c t _ZN6AP_HAL8AnalogInC1Ev
0806b30c t _ZN6AP_HAL8AnalogInC2Ev
0806b338 t _ZN6AP_HAL12AnalogSourceC1Ev
0806b338 t _ZN6AP_HAL12AnalogSourceC2Ev
0806b364 t _ZN6AP_HAL5PrintC1Ev
0806b364 t _ZN6AP_HAL5PrintC2Ev
0806b390 t _ZN6AP_HAL6StreamC1Ev
0806b390 t _ZN6AP_HAL6StreamC2Ev
0806b3dc t _ZN6AP_HAL12BetterStreamC1Ev
0806b3dc t _ZN6AP_HAL12BetterStreamC2Ev
0806b44c t _ZN6AP_HAL13ConsoleDriverC1Ev
0806b44c t _ZN6AP_HAL13ConsoleDriverC2Ev
0806b4dc t _ZN5Empty18EmptyDigitalSource5writeEh
0806b504 t _ZN5Empty18EmptyDigitalSource4readEv
0806b528 t _ZN5Empty18EmptyDigitalSource4modeEh
0806b548 t _ZN6AP_HAL13DigitalSourceC1Ev
0806b548 t _ZN6AP_HAL13DigitalSourceC2Ev
0806b574 t _ZN5Empty9EmptyGPIO16attach_interruptEhPFvvEh
0806b594 t _ZN5Empty9EmptyGPIO5writeEhh
0806b5b4 t _ZN5Empty9EmptyGPIO4readEh
0806b5d4 t _ZN5Empty9EmptyGPIO7pinModeEhh
0806b5f4 t _ZN5Empty9EmptyGPIO4initEv
0806b614 t _ZN6AP_HAL4GPIOC1Ev
0806b614 t _ZN6AP_HAL4GPIOC2Ev
0806b640 t _ZN5Empty18EmptyDigitalSourceC1Eh
0806b640 t _ZN5Empty18EmptyDigitalSourceC2Eh
0806b694 t _ZN5Empty9EmptyGPIOC1Ev
0806b694 t _ZN5Empty9EmptyGPIOC2Ev
0806b6e0 t _ZN5Empty9EmptyGPIO7channelEt
0806b750 t _ZN5Empty14EmptyI2CDriver12lockup_countEv
0806b770 t _ZN5Empty14EmptyI2CDriver13readRegistersEhhhPh
0806b790 t _ZN5Empty14EmptyI2CDriver12readRegisterEhhPh
0806b7b0 t _ZN5Empty14EmptyI2CDriver4readEhhPh
0806b7d0 t _ZN5Empty14EmptyI2CDriver14writeRegistersEhhhPh
0806b7f0 t _ZN5Empty14EmptyI2CDriver13writeRegisterEhhh
0806b810 t _ZN5Empty14EmptyI2CDriver5writeEhhPh
0806b830 t _ZN5Empty14EmptyI2CDriver12setHighSpeedEh
0806b850 t _ZN5Empty14EmptyI2CDriver10setTimeoutEt
0806b870 t _ZN5Empty14EmptyI2CDriver3endEv
0806b890 t _ZN5Empty14EmptyI2CDriver5beginEv
0806b8b0 t _ZN5Empty14EmptyI2CDriver13get_semaphoreEv
0806b8d4 t _ZN6AP_HAL7RCInputC1Ev
0806b8d4 t _ZN6AP_HAL7RCInputC2Ev
0806b900 t _ZN6AP_HAL9SchedulerC1Ev
0806b900 t _ZN6AP_HAL9SchedulerC2Ev
0806b92c t _ZN5Empty14EmptySemaphore16take_nonblockingEv
0806b964 t _ZN5Empty14EmptySemaphore4takeEj
0806b990 t _ZN5Empty14EmptySemaphore4giveEv
0806b9c8 t _ZN5Empty21EmptySPIDeviceManager6deviceEN6AP_HAL9SPIDeviceE
0806b9ec t _ZN5Empty21EmptySPIDeviceManager4initEPv
0806ba0c t _ZN6AP_HAL16SPIDeviceManagerC1Ev
0806ba0c t _ZN6AP_HAL16SPIDeviceManagerC2Ev
0806ba38 t _ZN5Empty20EmptySPIDeviceDriver8transferEPKht
0806ba58 t _ZN5Empty20EmptySPIDeviceDriver8transferEh
0806ba78 t _ZN5Empty20EmptySPIDeviceDriver10cs_releaseEv
0806ba98 t _ZN5Empty20EmptySPIDeviceDriver9cs_assertEv
0806bab8 t _ZN5Empty20EmptySPIDeviceDriver11transactionEPKhPht
0806bad8 t _ZN5Empty20EmptySPIDeviceDriver13get_semaphoreEv
0806bafc t _ZN5Empty20EmptySPIDeviceDriver4initEv
0806bb1c t _ZN6AP_HAL15SPIDeviceDriverC1Ev
0806bb1c t _ZN6AP_HAL15SPIDeviceDriverC2Ev
0806bb48 t _ZN6AP_HAL9SemaphoreC1Ev
0806bb48 t _ZN6AP_HAL9SemaphoreC2Ev
0806bb74 t _ZN5Empty14EmptySemaphoreC1Ev
0806bb74 t _ZN5Empty14EmptySemaphoreC2Ev
0806bbc4 t _ZN5Empty20EmptySPIDeviceDriverC1Ev
0806bbc4 t _ZN5Empty20EmptySPIDeviceDriverC2Ev
0806bc58 t _ZN5Empty21EmptySPIDeviceManagerC1Ev
0806bc58 t _ZN5Empty21EmptySPIDeviceManagerC2Ev
0806bd2c t _ZN6AP_HAL7StorageC1Ev
0806bd2c t _ZN6AP_HAL7StorageC2Ev
0806bd58 t _ZN5Empty15EmptyUARTDriver5writeEh
0806bd78 t _ZN5Empty15EmptyUARTDriver4readEv
0806bd9c t _ZN5Empty15EmptyUARTDriver7txspaceEv
0806bdbc t _ZN5Empty15EmptyUARTDriver9availableEv
0806bddc t _ZN5Empty15EmptyUARTDriver9vprintf_PEPKcSt9__va_list
0806bdfc t _ZN5Empty15EmptyUARTDriver7vprintfEPKcSt9__va_list
0806be1c t _ZN5Empty15EmptyUARTDriver9_printf_PEPKcz
0806be44 t _ZN5Empty15EmptyUARTDriver6printfEPKcz
0806be6c t _ZN5Empty15EmptyUARTDriver9println_PEPKc
0806be8c t _ZN5Empty15EmptyUARTDriver7print_PEPKc
0806beac t _ZN5Empty15EmptyUARTDriver10tx_pendingEv
0806becc t _ZN5Empty15EmptyUARTDriver19set_blocking_writesEh
0806beec t _ZN5Empty15EmptyUARTDriver14is_initializedEv
0806bf0c t _ZN5Empty15EmptyUARTDriver5flushEv
0806bf2c t _ZN5Empty15EmptyUARTDriver3endEv
0806bf4c t _ZN5Empty15EmptyUARTDriver5beginEjtt
0806bf6c t _ZN5Empty15EmptyUARTDriver5beginEj
0806bf8c t _ZN6AP_HAL10UARTDriverC1Ev
0806bf8c t _ZN6AP_HAL10UARTDriverC2Ev
0806c01c t _ZN5Empty15EmptyUARTDriverC1Ev
0806c01c t _ZN5Empty15EmptyUARTDriverC2Ev
0806c0cc t _ZN7Navstik15NavstikAnalogIn7channelEs
0806c100 t _ZN7Navstik19NavstikAnalogSource7set_pinEh
0806c128 t _ZN7Navstik19NavstikAnalogSource11read_latestEv
0806c158 t _ZN7Navstik19NavstikAnalogSource12read_averageEv
0806c1c0 t _ZN7Navstik15NavstikAnalogIn15_analogin_timerEj
0806c534 t _ZN7Navstik15NavstikAnalogIn4initEPv
0806c590 t _ZN7Navstik15NavstikAnalogInC1Ev
0806c590 t _ZN7Navstik15NavstikAnalogInC2Ev
0806c5dc t _ZN7Navstik19NavstikAnalogSourceC1Esff
0806c5dc t _ZN7Navstik19NavstikAnalogSourceC2Esff
0806c654 t _ZN7Navstik15NavstikAnalogIn7channelEsf
0806c754 t _ZN7Navstik20NavstikConsoleDriver5writeEh
0806c784 t _ZN7Navstik20NavstikConsoleDriver4readEv
0806c7b0 t _ZN7Navstik20NavstikConsoleDriver7txspaceEv
0806c7dc t _ZN7Navstik20NavstikConsoleDriver9availableEv
0806c808 t _ZN7Navstik20NavstikConsoleDriver9vprintf_PEPKcSt9__va_list
0806c83c t _ZN7Navstik20NavstikConsoleDriver7vprintfEPKcSt9__va_list
0806c870 t _ZN7Navstik20NavstikConsoleDriver13backend_writeEPKhj
0806c890 t _ZN7Navstik20NavstikConsoleDriver12backend_readEPhj
0806c8b0 t _ZN7Navstik20NavstikConsoleDriver13backend_closeEv
0806c8d0 t _ZN7Navstik20NavstikConsoleDriver12backend_openEv
0806c8f0 t _ZN7Navstik20NavstikConsoleDriver4initEPv
0806c918 t _ZN7Navstik20NavstikConsoleDriver9_printf_PEPKcz
0806c95c t _ZN7Navstik20NavstikConsoleDriver6printfEPKcz
0806c9a0 t _ZN7Navstik20NavstikConsoleDriver9println_PEPKc
0806c9cc t _ZN7Navstik20NavstikConsoleDriver7print_PEPKc
0806c9f8 t _ZN7Navstik20NavstikConsoleDriverC1Ev
0806c9f8 t _ZN7Navstik20NavstikConsoleDriverC2Ev
0806caa8 t _ZN6AP_HAL9I2CDriverC1Ev
0806caa8 t _ZN6AP_HAL9I2CDriverC2Ev
0806cad4 t _ZN6AP_HAL8RCOutputC1Ev
0806cad4 t _ZN6AP_HAL8RCOutputC2Ev
0806cb00 t _ZN7Navstik17NavstikUARTDriver15set_device_pathEPKc
0806cb28 t _ZN6AP_HAL3HALC1EPNS_10UARTDriverES2_S2_PNS_9I2CDriverEPNS_16SPIDeviceManagerEPNS_8AnalogInEPNS_7StorageEPNS_13ConsoleDriverEPNS_4GPIOEPNS_7RCInputEPNS_8RCOutputEPNS_9SchedulerEPNS_4UtilE
0806cb28 t _ZN6AP_HAL3HALC2EPNS_10UARTDriverES2_S2_PNS_9I2CDriverEPNS_16SPIDeviceManagerEPNS_8AnalogInEPNS_7StorageEPNS_13ConsoleDriverEPNS_4GPIOEPNS_7RCInputEPNS_8RCOutputEPNS_9SchedulerEPNS_4UtilE
0806cb90 t _ZN11HAL_NavstikC1Ev
0806cb90 t _ZN11HAL_NavstikC2Ev
0806cc5c t _ZL5usagev
0806ccbc t _ZNK11HAL_Navstik4initEiPKPc
0806ce3c t _ZL12set_priorityh
0806ce78 t _ZL15semaphore_yieldPv
0806cea0 t _ZN7Navstik15NavstikRCOutputC1Ev
0806cea0 t _ZN7Navstik15NavstikRCOutputC2Ev
0806ceec t _ZN7Navstik14NavstikStorageC1Ev
0806ceec t _ZN7Navstik14NavstikStorageC2Ev
0806cf6c t _ZN5Empty14EmptyI2CDriverC1EPN6AP_HAL9SemaphoreE
0806cf6c t _ZN5Empty14EmptyI2CDriverC2EPN6AP_HAL9SemaphoreE
0806cfc0 t _ZN7Navstik14NavstikRCInputC1Ev
0806cfc0 t _ZN7Navstik14NavstikRCInputC2Ev
0806d00c t _ZL13loop_overtimePv
0806d06c t _ZL9main_loopiPPc
0806d254 t _GLOBAL__sub_I__ZN11HAL_NavstikC2Ev
0806d280 t _ZN7Navstik14NavstikRCInput15clear_overridesEv
0806d304 t _ZN7Navstik14NavstikRCInput12set_overrideEhs
0806d34c t _ZN7Navstik14NavstikRCInput13set_overridesEPsh
0806d3f4 t _ZN7Navstik14NavstikRCInput4readEPth
0806d48c t _ZN7Navstik14NavstikRCInput4readEh
0806d4e4 t _ZN7Navstik14NavstikRCInput5validEv
0806d534 t _ZN7Navstik14NavstikRCInput4initEPv
0806d560 t _ZN7Navstik15NavstikRCOutput11_timer_tickEv
0806d5d4 t _ZN7Navstik15NavstikRCOutput4readEPth
0806d660 t _ZN7Navstik15NavstikRCOutput4readEh
0806d690 t _ZN7Navstik15NavstikRCOutput5writeEhPth
0806d718 t _ZN7Navstik15NavstikRCOutput12disable_maskEj
0806d738 t _ZN7Navstik15NavstikRCOutput10disable_chEh
0806d758 t _ZN7Navstik15NavstikRCOutput11enable_maskEj
0806d778 t _ZN7Navstik15NavstikRCOutput9enable_chEh
0806d798 t _ZN7Navstik15NavstikRCOutput8get_freqEh
0806d7bc t _ZN7Navstik15NavstikRCOutput4initEPv
0806d820 t _ZN7Navstik15NavstikRCOutput5writeEht
0806d868 t _ZN7Navstik15NavstikRCOutput8set_freqEjt
0806d8a0 t _ZN7Navstik16NavstikScheduler18system_initializedEv
0806d8d4 t _ZN7Navstik16NavstikScheduler19system_initializingEv
0806d900 t _ZN7Navstik16NavstikScheduler15in_timerprocessEv
0806d928 t _ZN7Navstik16NavstikScheduler11_run_timersEh
0806d9ac t _ZN7Navstik16NavstikScheduler18resume_timer_procsEv
0806d9e8 t _ZN7Navstik16NavstikScheduler19suspend_timer_procsEv
0806da10 t _ZN7Navstik16NavstikScheduler23register_timer_failsafeEPFvjEj
0806da38 t _ZN7Navstik16NavstikScheduler23register_delay_callbackEPFvvEt
0806da68 t _ZN7Navstik16NavstikScheduler5panicEPKc
0806dac4 t _ZN7Navstik16NavstikScheduler10_io_threadEv
0806db14 t _ZN7Navstik16NavstikScheduler13_timer_threadEv
0806db70 t _ZN7Navstik16NavstikScheduler6rebootEv
0806db84 t _ZN7Navstik16NavstikScheduler6millisEv
0806dbb8 t _ZN7Navstik16NavstikScheduler6microsEv
0806dbe4 t _ZN7Navstik16NavstikScheduler4initEPv
0806dc84 t _ZN7Navstik16NavstikScheduler22register_timer_processEPFvjE
0806dd14 t _ZN7Navstik16NavstikScheduler5delayEt
0806ddc0 t _ZN7Navstik16NavstikScheduler18delay_microsecondsEt
0806de40 t _ZN7Navstik16NavstikSchedulerC1Ev
0806de40 t _ZN7Navstik16NavstikSchedulerC2Ev
0806deac t _ZN7Navstik14NavstikStorage11_mark_dirtyEtt
0806df34 t _ZN7Navstik14NavstikStorage4initEPv
0806df54 t _ZN7Navstik14NavstikStorage11_timer_tickEv
0806e088 t _ZN7Navstik14NavstikStorage15_storage_createEv
0806e20c t _ZN7Navstik14NavstikStorage10write_wordEtt
0806e2ec t _ZN7Navstik14NavstikStorage13_storage_openEv
0806e34c t _ZN7Navstik14NavstikStorage10write_byteEth
0806e410 t _ZN7Navstik14NavstikStorage10read_blockEPvtj
0806e4b4 t _ZN7Navstik14NavstikStorage10read_dwordEt
0806e548 t _ZN7Navstik14NavstikStorage9read_wordEt
0806e5e0 t _ZN7Navstik14NavstikStorage9read_byteEt
0806e670 t _ZN7Navstik14NavstikStorage11write_blockEtPvj
0806e798 t _ZN7Navstik14NavstikStorage11write_dwordEtj
0806e870 t _ZN7Navstik17NavstikUARTDriver5writeEh
0806e948 t _ZN7Navstik17NavstikUARTDriver4readEv
0806e9ac t _ZN7Navstik17NavstikUARTDriver7txspaceEv
0806ea10 t _ZN7Navstik17NavstikUARTDriver9availableEv
0806ea6c t _ZN7Navstik17NavstikUARTDriver10tx_pendingEv
0806ea8c t _ZN7Navstik17NavstikUARTDriver19set_blocking_writesEh
0806eabc t _ZN7Navstik17NavstikUARTDriver14is_initializedEv
0806eadc t _ZN7Navstik17NavstikUARTDriver5flushEv
0806eafc t _ZN7Navstik17NavstikUARTDriver3endEv
0806eb1c t _ZN7Navstik17NavstikUARTDriver5beginEj
0806eb50 t _ZN7Navstik17NavstikUARTDriver11_timer_tickEv
0806ed4c t _ZN7Navstik17NavstikUARTDriver5writeEPKhj
0806ee80 t _ZN7Navstik17NavstikUARTDriver17_internal_vprintfEPKcSt9__va_list
0806eee0 t _ZN7Navstik17NavstikUARTDriver8_vprintfEPKcSt9__va_list
0806ef78 t _ZN7Navstik17NavstikUARTDriver9vprintf_PEPKcSt9__va_list
0806efac t _ZN7Navstik17NavstikUARTDriver7vprintfEPKcSt9__va_list
0806efe0 t _ZN7Navstik17NavstikUARTDriver9_printf_PEPKcz
0806f020 t _ZN7Navstik17NavstikUARTDriver6printfEPKcz
0806f060 t _ZN7Navstik17NavstikUARTDriver9println_PEPKc
0806f08c t _ZN7Navstik17NavstikUARTDriver7print_PEPKc
0806f0b8 t _ZN7Navstik17NavstikUARTDriver5beginEjtt
0806f218 t _ZN7Navstik17NavstikUARTDriverC1EPKcS2_
0806f218 t _ZN7Navstik17NavstikUARTDriverC2EPKcS2_
0806f2ec t _ZL14libc_vsnprintfPcjPKcSt9__va_list
0806f328 t _ZN7Navstik11NavstikUtil8snprintfEPcjPKcz
0806f388 t _ZN7Navstik11NavstikUtil11vsnprintf_PEPcjPKcSt9__va_list
0806f3d8 t _ZN7Navstik11NavstikUtil9vsnprintfEPcjPKcSt9__va_list
0806f428 t _ZN7Navstik11NavstikUtil10snprintf_PEPcjPKcz
0806f488 t _ZN17AP_InertialSensor21_calibrate_find_deltaEPfPA6_fS0_
0806f71c t _ZN17AP_InertialSensor25_calibrate_reset_matricesEPfPA6_f
0806f7a0 t _ZN17AP_InertialSensor26_calibrate_update_matricesEPfPA6_fS0_S0_
0806fab0 t _ZN9AP_ParamVI7Vector3IfEL11ap_var_type5EEaSES1_
0806faec t _ZN17AP_InertialSensor16_save_parametersEv
0806fb30 t _ZN17AP_InertialSensor4initENS_11Start_styleENS_11Sample_rateEPFvhE
0806fbf4 t _ZN17AP_InertialSensor16_calibrate_accelEP7Vector3IfERS1_S3_
0806ff70 t _ZN17AP_InertialSensorC1Ev
0806ff70 t _ZN17AP_InertialSensorC2Ev
080700ec t _ZN17AP_InertialSensor10init_accelEPFvhE
08070154 t _ZN17AP_InertialSensor9init_gyroEPFvhE
080701bc t _ZN17AP_InertialSensor11_init_accelEPFvhE
080704f4 t _ZN17AP_InertialSensor15calibrate_accelEPFvhEP30AP_InertialSensor_UserInteract
080708fc t _ZN17AP_InertialSensor10_init_gyroEPFvhE
08070ee4 t _ZN10QuaternionC1Ev
08070ee4 t _ZN10QuaternionC2Ev
08070f14 t _ZN7Vector3IfEmIERKS0_
08070f68 t _GLOBAL__sub_I__ZN25AP_InertialSensor_MPU600011_gyro_scaleE
08070f94 t _ZN25AP_InertialSensor_Navstik14get_delta_timeEv
08070fc4 t _ZN25AP_InertialSensor_Navstik11temperatureEv
08070fec t _ZN25AP_InertialSensor_Navstik18new_data_availableEv
0807101c t _ZN25AP_InertialSensor_Navstik19get_gyro_drift_rateEv
08071058 t _ZN25AP_InertialSensor_Navstik12_init_sensorEN17AP_InertialSensor11Sample_rateE
08071144 t _ZN25AP_InertialSensor_Navstik11_accumulateEv.part.0
080712b8 t _ZN25AP_InertialSensor_Navstik11_accumulateEv
080712e8 t _ZN25AP_InertialSensor_Navstik21num_samples_availableEv
0807134c t _ZN25AP_InertialSensor_Navstik10_ins_timerEj
0807138c t _GLOBAL__sub_I__ZN25AP_InertialSensor_Navstik10_accel_sumE
080713b8 t _ZN25AP_InertialSensor_Navstik6updateEv
08071694 t _ZN36AP_InertialSensor_UserInteractStream9_printf_PEPKcz
080716d8 t _ZN36AP_InertialSensor_UserInteractStream9println_PEPKc
08071708 t _ZN36AP_InertialSensor_UserInteractStream13blocking_readEv
08071768 t _Z2sqf
08071798 t _Z7degreesf
080717d0 t _Z7radiansf
08071808 t _Z15constrain_int32iii
08071838 t _Z15constrain_int16sss
08071868 t _Z9constrainfff
080718b8 t _Z9safe_sqrtf
08071918 t _Z9safe_asinf
08071994 t _Z12pythagorous3fff
08071a20 t _Z12pythagorous2ff
08071a94 t _ZNK7Vector2IfEmlERKS0_
08071adc t _ZL15longitude_scalePK8Location
08071b58 t _ZN7Vector2IfE5angleERKS0_
08071bdc t _Z14get_bearing_cdPK8LocationS1_
08071ccc t _Z15location_offsetP8Locationff
08071db0 t _Z12get_distancePK8LocationS1_
08071e88 t _Z21location_passed_pointR8LocationS0_S0_
08072284 t _ZN7Matrix3IfEC1E7Vector3IfES2_S2_
08072284 t _ZN7Matrix3IfEC2E7Vector3IfES2_S2_
080722f8 t _ZN7Matrix3IfE8to_eulerEPfS1_S1_
08072358 t _ZN7Matrix3IfE10from_eulerEfff
08072434 t _ZNK7Matrix3IfE10transposedEv
080724fc t _ZNK7Matrix3IfEmlERKS0_
080726a0 t _ZNK7Matrix3IfE13mul_transposeERK7Vector3IfE
08072754 t _ZNK7Matrix3IfEmlERK7Vector3IfE
08072808 t _ZNK7Matrix3IfEplERKS0_
08072954 t _ZN7Matrix3IfEpLERKS0_
08072ab4 t _ZN7Matrix3IfE6rotateERK7Vector3IfE
08072d14 t _Z16Polygon_completePK7Vector2IiEj
08072d64 t _Z15Polygon_outsideRK7Vector2IiEPS1_j
0807300c t _ZNK7Vector2IfE6lengthEv
08073048 t _ZNK7Vector3IfEmlERKS0_
0807309c t _ZN7Vector3IfE6rotateE8Rotation
08073434 t _ZNK7Vector3IfE6lengthEv
08073474 t _ZNK7Vector3IfErmERKS0_
08073504 t _ZL16pgm_read_pointerPKv
08073528 t _ZL16pgm_read_pointerPKv
0807354c t _ZN4Menu5_helpEv
080735bc t _ZN4MenuC1EPKcPKNS_7commandEhPFhvE
080735bc t _ZN4MenuC2EPKcPKNS_7commandEhPFhvE
080735f8 t _ZN4Menu5_callEhh
08073654 t _ZN4Menu3runEv
080739ec t _ZN8AP_Mount13closest_limitEsPsS0_
08073be8 t _ZN8AP_Mount11control_cmdEv
08073c08 t _ZN8AP_Mount13configure_cmdEv
08073c28 t _ZN8AP_Mount23set_GPS_target_locationE8Location
08073c60 t _ZN8AP_Mount10move_servoEhsss
08073cb0 t _ZN7Matrix3IfE9transposeEv
08073d0c t _ZN8AP_Mount21calc_GPS_target_angleEP8Location
08073dd8 t mavlink_msg_mount_status_decode
08073e08 t mavlink_msg_mount_control_decode
08073e38 t mavlink_msg_mount_configure_decode
08073e68 t mavlink_msg_mount_status_send
08073ebc t _ZN8AP_Mount17update_mount_typeEv
08073f40 t _ZN8AP_Mount8set_modeE14MAV_MOUNT_MODE
08073f84 t _ZN8AP_Mount18set_control_anglesEfff
08073ff8 t _ZN8AP_Mount18set_neutral_anglesEfff
0807406c t _ZN8AP_Mount18set_retract_anglesEfff
080740e0 t _ZN8AP_Mount10status_msgEP17__mavlink_message
080741f4 t _ZN8AP_Mount11angle_inputEP10RC_Channelss
08074298 t _ZN8AP_Mount15angle_input_radEP10RC_Channelss
080742f8 t _ZN8AP_Mount13configure_msgEP17__mavlink_message
080743d0 t _ZN8AP_MountC1EPK8LocationRP3GPSP7AP_AHRSh
080743d0 t _ZN8AP_MountC2EPK8LocationRP3GPSP7AP_AHRSh
08074748 t _ZN8AP_Mount9stabilizeEv
08074a38 t _ZN8AP_Mount11control_msgEP17__mavlink_message
08074c94 t _ZN8AP_Mount21update_mount_positionEv
08075680 t _ZNK9AP_ParamTIiL11ap_var_type3EE3getEv
080756a4 t _ZN9AP_ParamTIaL11ap_var_type1EE13cast_to_floatEv
080756dc t _ZN9AP_ParamTIsL11ap_var_type2EE13cast_to_floatEv
08075714 t _ZN9AP_ParamTIiL11ap_var_type3EE13cast_to_floatEv
0807574c t _ZN9AP_ParamTIfL11ap_var_type4EE13cast_to_floatEv
0807577c t _ZL13pgm_read_wordPKv
080757a0 t _ZL14pgm_read_floatPKv
080757d0 t _ZN8AP_Param9type_sizeE11ap_var_type
08075804 t _ZN8AP_Param18eeprom_write_checkEPKvth
080758bc t _ZL9strnlen_PPKcj
080758ec t _ZL9strncmp_PPKcS0_j
08075924 t _ZL9strncpy_PPcPKcj
0807595c t _ZN8AP_Param19add_vector3f_suffixEPcjh
080759c4 t _ZN8AP_Param9set_valueE11ap_var_typePvf
08075a74 t _ZN8AP_Param13cast_to_floatE11ap_var_type
08075b34 t _ZN8AP_Param4scanEPKNS_12Param_headerEPt
08075c44 t _ZN8AP_Param21setup_object_defaultsEPKvPKNS_9GroupInfoE
08075cdc t _ZN8AP_Param13duplicate_keyEhh
08075d60 t _ZN8AP_Param16check_group_infoEPKNS_9GroupInfoEPth
08075e7c t _ZN8AP_Param10find_groupEPKchPKNS_9GroupInfoEP11ap_var_type
08076040 t _ZN8AP_Param4findEPKcP11ap_var_type
080761ac t _ZN8AP_Param5firstEPNS_10ParamTokenEP11ap_var_type
0807621c t _ZN8AP_Param19find_var_info_groupEPKNS_9GroupInfoEhhhPjPS2_Ph
080763e0 t _ZN8AP_Param19find_var_info_tokenEPKNS_10ParamTokenEPjPPKNS_9GroupInfoEPh
080764dc t _ZN8AP_Param13find_var_infoEPjPPKNS_9GroupInfoEPh
0807661c t _ZN8AP_Param15copy_name_tokenEPKNS_10ParamTokenEPcjh
08076738 t _ZN8AP_Param4loadEv
08076900 t _ZN8AP_Param10next_groupEhPKNS_9GroupInfoEPhhhPNS_10ParamTokenEP11ap_var_type
08076ae4 t _ZN8AP_Param4nextEPNS_10ParamTokenEP11ap_var_type
08076c74 t _ZN8AP_Param11next_scalarEPNS_10ParamTokenEP11ap_var_type
08076cb0 t _ZN8AP_Param13find_by_indexEtP11ap_var_typePNS_10ParamTokenE
08076da0 t _ZN8AP_Param8show_allEv
08076f60 t _ZN8AP_Param20find_by_header_groupENS_12Param_headerEPPvhPKNS_9GroupInfoEhh
080770a4 t _ZN8AP_Param14find_by_headerENS_12Param_headerEPPv
080771a0 t _ZN8AP_Param8load_allEv
080772b8 t _ZN8AP_Param14check_var_infoEv
0807742c t _ZN8AP_Param14write_sentinalEt
080774f8 t _ZN8AP_Param9erase_allEv
08077664 t _ZN8AP_Param21setup_sketch_defaultsEv
080778dc t _ZN8AP_Param5setupEv
08077a8c t _ZN8AP_Param4saveEv
08077fe8 t _ZN8AP_Relay6toggleEv
08078008 t _ZN8AP_Relay3offEv
08078028 t _ZN8AP_Relay2onEv
08078048 t _ZN8AP_Relay4initEv
08078068 t _ZN15DataFlash_Class11GetFilePageEv
0807808c t _ZN15DataFlash_Class13GetFileNumberEv
080780b0 t _ZN15DataFlash_Class13SetFileNumberEt
080780dc t _ZN15DataFlash_Class9ReadBlockEPvt
08078190 t _ZN15DataFlash_Class8ReadLongEv
080781c4 t _ZN15DataFlash_Class7ReadIntEv
080781fc t _ZN15DataFlash_Class8ReadByteEv
08078238 t _ZN15DataFlash_Class9StartReadEs
0807829c t _ZN15DataFlash_Class7GetPageEv
080782c0 t _ZN15DataFlash_Class11FinishWriteEv
0807830c t _ZN15DataFlash_Class10StartWriteEs
08078340 t _ZN15DataFlash_Class10WriteBlockEPKvt
08078440 t _ZN15DataFlash_Class9WriteLongEi
08078474 t _ZN15DataFlash_Class8WriteIntEs
080784a8 t _ZN15DataFlash_Class9WriteByteEh
080784dc t _ZN15DataFlash_Class8EraseAllEv
08078610 t _ZN15DataFlash_Class9NeedEraseEv
080786d0 t _ZN15DataFlash_Empty9ChipEraseEv
080786f0 t _ZN15DataFlash_Empty10BlockEraseEt
08078710 t _ZN15DataFlash_Empty9PageEraseEt
08078730 t _ZN15DataFlash_Empty9BlockReadEhtPvt
08078750 t _ZN15DataFlash_Empty10BlockWriteEhtPKvhS1_t
08078770 t _ZN15DataFlash_Empty12BufferToPageEhth
08078790 t _ZN15DataFlash_Empty12PageToBufferEht
080787b0 t _ZN15DataFlash_Empty9WaitReadyEv
080787d0 t _ZN15DataFlash_Empty12CardInsertedEv
080787f0 t _ZN15DataFlash_Empty18ReadManufacturerIDEv
0807881c t _ZN15DataFlash_Empty4InitEv
0807884c t _ZN15DataFlash_Class16log_read_processEttPFvhE
080788dc t _ZN15DataFlash_Class13check_wrappedEv
08078918 t _ZN15DataFlash_Class14find_last_pageEv
080789c8 t _ZN15DataFlash_Class13find_last_logEv
08078a00 t _ZN15DataFlash_Class12get_num_logsEv
08078a98 t _ZN15DataFlash_Class21find_last_page_of_logEt
08078bb0 t _ZN15DataFlash_Class13start_new_logEv
08078c7c t _ZN15DataFlash_Class18get_log_boundariesEhRsS0_
08078e0c t _ZN16DerivativeFilterIfLh7EE5slopeEv
08078ff4 t _ZN16DerivativeFilterIfLh7EE6updateEfj
08079090 t _ZN16DerivativeFilterIfLh7EE5resetEv
080790e0 t _Z16comm_send_buffer17mavlink_channel_tPKhh
08079124 t _Z12mav_var_type11ap_var_type
08079170 t _Z20mavlink_check_targethh
080791a4 t crc_accumulate
080791e4 t crc_init
0807920c t _Z26mavlink_get_channel_bufferh
0807923c t mavlink_get_channel_status
0807926c t _Z23mavlink_get_message_crch
080792b0 t mavlink_start_checksum
080792f0 t crc_calculate
080793d4 t crc_accumulate_buffer
080794ec t mavlink_update_checksum
0807954c t _mavlink_send_uart
080795a4 t _mavlink_resend_uart
080796e0 t _mav_finalize_message_chan_send
08079ab4 t mavlink_parse_char
08079f58 t _ZN3PID7reset_IEv
08079f88 t _ZN3PID7get_pidEif
0807a1cc t _ZN14RC_Channel_aux9output_chEh
0807a234 t _ZN14RC_Channel_aux10move_servoENS_20Aux_servo_function_tEsss
0807a494 t _ZN14RC_Channel_aux17function_assignedENS_20Aux_servo_function_tE
0807a590 t _ZN14RC_Channel_aux13set_servo_outENS_20Aux_servo_function_tEs
0807a72c t _ZN14RC_Channel_aux17copy_radio_in_outENS_20Aux_servo_function_tEh
0807aa1c t _ZN14RC_Channel_aux14set_radio_trimENS_20Aux_servo_function_tE
0807ac6c t _ZN14RC_Channel_aux9set_radioENS_20Aux_servo_function_tEs
0807afd0 t _Z17enable_aux_servosv
0807b0f0 t _Z25update_aux_servo_functionP14RC_Channel_auxS0_S0_S0_S0_S0_S0_
0807b360 t _ZN10RC_Channel10enable_outEv
0807b398 t _ZN10RC_Channel5inputEv
0807b3d4 t _ZN10RC_Channel6outputEv
0807b40c t _ZN10RC_Channel9set_angleEs
0807b438 t _ZN10RC_Channel9set_rangeEss
0807b470 t _ZN10RC_Channel11save_eepromEv
0807b4bc t _ZN10RC_Channel14update_min_maxEv
0807b568 t _ZN10RC_Channel11get_reverseEv
0807b5b0 t _ZN10RC_Channel13set_dead_zoneEs
0807b620 t _ZN10RC_Channel12range_to_pwmEv
0807b69c t _ZN10RC_Channel12get_failsafeEv
0807b6ec t _ZN10RC_Channel11norm_outputEv
0807b7c8 t _ZN10RC_Channel10norm_inputEv
0807b904 t _ZN10RC_Channel12angle_to_pwmEv
0807b9e4 t _ZN10RC_Channel15pwm_to_range_dzEt
0807bb10 t _ZN10RC_Channel12pwm_to_rangeEv
0807bb54 t _ZN10RC_Channel15pwm_to_angle_dzEt
0807bc94 t _ZN10RC_Channel12pwm_to_angleEv
0807bcd8 t _ZN10RC_Channel19set_pwm_no_deadzoneEs
0807bd14 t _ZN10RC_Channel7set_pwmEs
0807bdc0 t _ZN10RC_Channel8calc_pwmEv
0807bf58 t _Z25memcheck_available_memoryv
0807bf7c t _Z13memcheck_initv
0807bf9c t _ZN6AP_HAL5Print5printEc
0807bfcc t _ZN6AP_HAL5Print5writeEPKhj
0807c04c t _ZN6AP_HAL5Print5writeEPKc
0807c084 t _ZN6AP_HAL5Print7printlnEv
0807c0ec t _ZN6AP_HAL5Print11printNumberEmh
0807c18c t _ZN6AP_HAL5Print5printEPKc
0807c1e0 t _ZN6AP_HAL5Print7printlnEPKc
0807c2a8 t _ZN6AP_HAL5Print5printEmi
0807c368 t _ZN6AP_HAL5Print5printEhi
0807c43c t _ZN6AP_HAL5Print5printEli
0807c610 t _ZN6AP_HAL5Print5printEii
0807c648 t _ZN6AP_HAL5Print10printFloatEfh
0807c8d8 t _ZN6AP_HAL5Print5printEfi
0807c918 t _ZN6AP_HAL5Print7printlnEii
0807c9c4 T _ZN9NullMixer15groups_requiredERj
0807c9e4 T _ZN9NullMixer3mixEPfj
0807ca0c T _ZN5Mixer11scale_checkER14mixer_scaler_s
0807caa0 T _ZN5Mixer5scaleERK14mixer_scaler_sf
0807cb08 T _ZN5Mixer11get_controlEhh
0807cb50 T _ZN5MixerC1EPFijhhRfEj
0807cb50 T _ZN5MixerC2EPFijhhRfEj
0807cb88 T _ZN9NullMixerC1Ev
0807cb88 T _ZN9NullMixerC2Ev
0807cbd8 T _ZN9NullMixer9from_textEPKcRj
0807cc64 T _ZN10MixerGroup15groups_requiredERj
0807cc98 T _ZN10MixerGroup3mixEPfj
0807ccf4 W _ZN5MixerD1Ev
0807ccf4 W _ZN5MixerD2Ev
0807cd20 T _ZN10MixerGroup9add_mixerEP5Mixer
0807cd58 T _ZN10MixerGroupC1EPFijhhRfEj
0807cd58 T _ZN10MixerGroupC2EPFijhhRfEj
0807cd98 T _ZN10MixerGroup5resetEv
0807cde8 T _ZN10MixerGroup13load_from_bufEPKcRj
0807ceb8 T _ZN10MixerGroupD1Ev
0807ceb8 T _ZN10MixerGroupD2Ev
0807cf34 T _ZN15MultirotorMixer15groups_requiredERj
0807cf60 T _ZN15MultirotorMixer3mixEPfj
0807d0c8 T _ZN15MultirotorMixerC1EPFijhhRfEjNS_8GeometryEffff
0807d0c8 T _ZN15MultirotorMixerC2EPFijhhRfEjNS_8GeometryEffff
0807d154 T _ZN15MultirotorMixer9from_textEPFijhhRfEjPKcRj
0807d2dc T _ZN11SimpleMixer5checkEv
0807d374 T _ZN11SimpleMixer15groups_requiredERj
0807d3bc t _ZL7findtagPKcRjc
0807d45c T _ZN11SimpleMixer3mixEPfj
0807d4ec t _ZL8skiplinePKcRj
0807d530 T _ZN11SimpleMixerC1EPFijhhRfEjP14mixer_simple_s
0807d530 T _ZN11SimpleMixerC2EPFijhhRfEjP14mixer_simple_s
0807d570 T _ZN11SimpleMixerD1Ev
0807d570 T _ZN11SimpleMixerD2Ev
0807d5bc T _ZN11SimpleMixer20parse_control_scalerEPKcRjR14mixer_scaler_sRhS5_
0807d774 T _ZN11SimpleMixer19parse_output_scalerEPKcRjR14mixer_scaler_s
0807d90c T _ZN11SimpleMixer9from_textEPFijhhRfEjPKcRj
0807d9f4 T closedir
0807da74 t file_vfcntl
0807db0c T fcntl
0807dbb0 T file_dup
0807dc3c T dup2
0807dca8 T lseek
0807dd50 t open_mountpoint
0807ddb4 t open_pseudodir
0807dde8 T opendir
0807df08 t poll_fdsetup
0807df6c t poll_semtake
0807dfb0 t poll_timeout
0807dfdc t poll_teardown
0807e24c t poll_setup
0807e434 T poll
0807e988 t readpseudodir
0807ea18 T readdir
0807eb10 t statroot
0807eb44 t statpseudo
0807ebd0 T stat
0807ecf4 T register_blockdriver
0807ed44 t fs_checkfd
0807ed88 T fs_fdopen
0807eeac T fsync
0807ef24 T mkdir
0807ef9c t mount_findfs
0807eff4 T mount
0807f170 T rename
0807f228 T rmdir
0807f29c T umount
0807f354 T foreach_mountpoint
0807f390 t mountpoint_filter
0807f424 t fat_stat
0807f52c t fat_ioctl
0807f570 t fat_rename
0807f65c t fat_rmdir
0807f6a0 t fat_unlink
0807f6e4 t fat_rewinddir
0807f768 t fat_opendir
0807f804 t fat_mkdir
0807f9a4 t fat_statfs
0807fa1c t fat_unbind
0807fa80 t fat_bind
0807fb14 t fat_readdir
0807fbd8 t fat_dup
0807fc9c t fat_sync
0807fd44 t fat_close
0807fd80 t fat_seek
0807fedc t fat_write
080800d4 t fat_read
08080280 t fat_open
080803dc t fat_lfnchecksum
08080498 t fat_getsfname
080806cc t fat_allocatesfnentry
08080770 t fat_parselfname
08080854 t fat_allocatelfnentry
08080940 t fat_createalias
08080c90 t fat_parsesfname
08080dac t fat_putsfname
08080df8 t fat_findsfnentry
08080e9c t fat_findalias
08080ee4 t fat_initlfname
08080f54 t fat_putlfnchunk
08080fc8 t fat_getlfnchunk
08081048 t fat_cmplfnchunk
0808110c T fat_freedirentry
08081198 t fat_uniquealias
08081300 t fat_putsfdirentry
08081398 T fat_allocatedirentry
08081630 t fat_path2dirname
08081830 t fat_getlfname
08081c34 t fat_putlfname
080826b0 T fat_dirwrite
080826f8 T fat_dirnamewrite
08082760 T fat_dircreate
080827dc t fat_cmplfname
08082a14 t fat_findlfnentry
08082c40 T fat_finddirentry
080831b0 T fat_remove
080832ac T fat_dirname2path
080838c0 T fat_cluster2sector
080838fc T fat_hwwrite
08083960 T fat_hwread
080839c4 T fat_checkmount
08083a20 T fat_fattime2systime
08083a40 T fat_systime2fattime
08083a60 T fat_putuint16
08083a94 T fat_getuint16
08083ac0 T fat_semgive
08083aec T fat_semtake
08083b34 T fat_putuint32
08083bb8 T fat_currentsector
08083c40 T fat_getuint32
08083ca4 t fat_checkbootrecord
08083e3c T fat_fscacheflush
08083fac T fat_updatefsinfo
08084040 t fat_checkfsinfo
0808412c T fat_fscacheread
080841c4 T fat_ffcacheflush
08084250 T fat_ffcacheread
08084394 T fat_putcluster
080845e0 T fat_getcluster
080847e8 T fat_nfreeclusters
08084a70 T fat_nextdirentry
08084b18 T fat_extendchain
08084c2c T fat_removechain
08084cb4 T fat_dirtruncate
08084e18 T fat_ffcacheinvalidate
08084ee4 T fat_mount
08085380 t mkfatfs_getgeometry
08085420 T mkfatfs
08085574 t mkfatfs_clustersearchlimits
080855f4 t mkfatfs_nfatsect12
08085678 t mkfatfs_nfatsect16
080856f8 t mkfatfs_nfatsect32
0808579c t mkfatfs_selectfat
080857d8 t mkfatfs_clustersearch
08085cb8 t mkfatfs_tryfat16
08085da8 t mkfatfs_tryfat12
08085e84 t mkfatfs_tryfat32
08085f9c T mkfatfs_configfatfs
08086500 t mkfatfs_initfsinfo
08086564 t mkfatfs_writefat
0808663c t mkfatfs_initmbr
08086780 t mkfatfs_initrootdir
080867ec t mkfatfs_writerootdir
080868b0 t mkfatfs_writembr
08086c38 T mkfatfs_writefatfs
080871b8 t romfs_stat
0808726c t romfs_statfs
080872e4 t romfs_rewinddir
08087320 t romfs_opendir
08087394 t romfs_ioctl
080873e4 t romfs_seek
08087484 t romfs_close
080874c4 t romfs_unbind
08087530 t romfs_bind
080875dc t romfs_readdir
08087674 t romfs_dup
08087700 t romfs_read
080877e8 t romfs_open
080878a8 t romfs_swap32
080878cc T romfs_checkmount
08087920 T romfs_hwread
08087994 T romfs_filecacheread
080879f0 T romfs_devcacheread
08087a4c T romfs_fileconfigure
08087aa0 T romfs_hwconfigure
08087b20 T romfs_semgive
08087b4c T romfs_semtake
08087b94 t romfs_devread32
08087bd8 T romfs_parsefilename
08087cb4 t romfs_followhardlinks
08087db8 T romfs_datastart
08087e78 T romfs_fsconfigure
08087f38 T romfs_parsedirentry
080880a0 t romfs_checkentry
08088158 t romfs_searchdir
080882c0 T romfs_finddirentry
080884d0 t binfs_stat
0808851c t binfs_unbind
0808853c t binfs_bind
0808855c t binfs_rewinddir
08088584 t binfs_opendir
080885b4 t binfs_dup
080885dc t binfs_ioctl
08088624 t binfs_read
08088644 t binfs_close
08088664 t binfs_open
080886b4 t binfs_statfs
080886ec t binfs_readdir
08088734 T foreach_inodelevel
080887e0 T foreach_inode
08088838 T find_blockdriver
080888ac T open_blockdriver
08088900 T close_blockdriver
0808893c T bchlib_setup
080889f4 T bchlib_teardown
08088a40 T bchlib_read
08088b30 T bchlib_write
08088c44 T bchlib_flushsector
08088c7c T bchlib_readsector
08088d00 T mkfifo
08088d54 t pipecommon_pollnotify
08088db0 t pipecommon_semtake
08088df4 T pipecommon_freedev
08088e34 T pipecommon_allocdev
08088eb4 T pipecommon_write
08089064 T pipecommon_close
08089120 T pipecommon_open
08089200 T pipecommon_poll
0808931c T pipecommon_read
080894b8 T devnull_register
080894f4 t devnull_write
08089518 t devnull_read
08089538 t devnull_poll
0808957c T loteardown
080895d8 t loop_geometry
08089618 T losetup
08089708 t loop_write
0808975c t loop_read
080897e4 t loop_semtake
08089828 t loop_open
08089898 t loop_close
08089908 T ramdisk_register
08089984 t rd_ioctl
080899c8 t rd_geometry
08089a08 t rd_close
08089a28 t rd_open
08089a48 t rd_write
08089ab0 t rd_read
08089b0c T builtin_getname
08089b50 T builtin_isavail
08089ba8 T cosf
08089c1c T floorf
08089cb8 T sinf
08089d30 T pow
0808a0a0 T acosf
0808a158 T asinf
0808a210 T logf
0808a308 T powf
0808a6a8 T __ieee754_pow
0808b238 T __ieee754_acosf
0808b458 T __ieee754_asinf
0808b640 T __ieee754_logf
0808b844 T __ieee754_powf
0808be44 T __ieee754_rem_pio2f
0808c0e8 T __kernel_cosf
0808c1ec T __kernel_rem_pio2f
0808c80c T __kernel_sinf
0808c898 T finite
0808c8ac T rint
0808c9d0 T finitef
0808c9e4 T nanf
0808c9f0 T scalbnf
0808cabc T copysignf
0808cad4 T __aeabi_d2uiz
0808cad4 T __fixunsdfsi
0808cb14 T __aeabi_frsub
0808cb1c T __aeabi_fsub
0808cb1c T __subsf3
0808cb20 T __addsf3
0808cb20 T __aeabi_fadd
0808cc80 T __aeabi_ui2f
0808cc80 T __floatunsisf
0808cc88 T __aeabi_i2f
0808cc88 T __floatsisf
0808cca4 T __aeabi_ul2f
0808cca4 T __floatundisf
0808ccb4 T __aeabi_l2f
0808ccb4 T __floatdisf
0808cd30 T __aeabi_ldivmod
0808cd68 T __aeabi_f2ulz
0808cd68 T __fixunssfdi
0808cdb0 T __aeabi_d2ulz
0808cdb0 T __fixunsdfdi
0808cdf4 T prctl
0808ce80 T task_delete
0808cf30 T task_deletecurrent
0808cf90 T sched_mergepending
0808d050 T sched_addblocked
0808d0ac T sched_removeblocked
0808d0f8 T sched_getparam
0808d168 T waitpid
0808d1c8 t sched_process_timeslice
0808d1e8 T sched_process_timer
0808d230 T sleep
0808d2a0 T sem_trywait
0808d308 T work_queue
0808d380 T work_cancel
0808d3cc T gettimeofday
0808d414 t pthread_addjoininfo
0808d450 t pthread_argsetup
0808d4a0 t pthread_start
0808d4ec T pthread_create
0808d6a8 T pthread_join
0808d760 T pthread_mutex_init
0808d7b0 T pthread_mutex_destroy
0808d7fc T pthread_mutex_lock
0808d850 T pthread_mutex_unlock
0808d8a4 T pthread_cond_init
0808d8e4 T pthread_cond_destroy
0808d920 T pthread_cond_wait
0808d998 T pthread_cond_signal
0808d9dc T env_share
0808da20 T getenv
0808da80 T setenv
0808dba0 T unsetenv
0808dc0c T sched_setuppthreadfiles
0808dc50 T clock_gettime
0808dce8 t env_cmpname
0808dd38 T env_findvar
0808ddcc T env_removevar
0808df18 T up_systemreset
0808df48 T mallinfo
0808e004 T fileno
0808e038 T sprintf
0808e088 T avsprintf
0808e0f4 T vsnprintf
0808e13c t findwidth
0808e198 T vsscanf
0808e4ec T sscanf
0808e530 t lib_mode2oflags
0808e5e4 T fopen
0808e638 T fdopen
0808e674 T fclose
0808e708 T fread
0808e748 T lib_fread
0808e8f0 T fgets
0808e9a0 t fgenerate1
0808ea00 t nrand
0808ead0 t frand1
0808eb60 T rand
0808ec48 T getopt
0808eda0 T chdir
0808ee34 T sched_get_priority_max
0808ee60 T sched_get_priority_min
0808ee8c T memchr
0808ef00 T strcasecmp
0808ef54 T strcat
0808ef94 T strcspn
0808efd4 T strnlen
0808f034 T strncmp
0808f0c4 T strrchr
0808f138 T strstr
0808f1a0 T strtok_r
0808f22c T strtol
0808f290 T strtoul
0808f2f0 t is_real
0808f348 T strtod
0808f628 T pthread_attr_init
0808f668 T pthread_attr_setschedpolicy
0808f6a0 T pthread_attr_setstacksize
0808f6dc T pthread_attr_setschedparam
0808f714 T gmtime
0808f748 t clock_utc2calendar
0808f814 T gmtime_r
0808f8b0 T time
0808f8ec T basename
0808f9a4 T dirname
0808fa60 T tcgetattr
0808fa94 T tcsetattr
0808facc T dq_addlast
0808fb04 T fgetc
0808fb40 T lib_checkbase
0808fbac T lib_isbasedigit
0808fc1c T lib_skipspace
0808fc5c T __cxa_pure_virtual
0808fc90 T unregister_blockdriver
0808fcc4 T g_gpiobase
0808fcc4 t .LANCHOR0
0808fd10 t g_uart_dma_ops
0808ff82 T g_heapbase
0808ff88 t g_nullstring
0808ff88 t .LANCHOR0
0808ffb8 t tens
08090080 t bigtens
080900a8 t p05.5450
08090190 T pwm_channels
080901d0 T pwm_timers
08090210 t _ZTV3LED
080905b0 T __orb_parameter_update
080905b8 T __orb_input_rc
080905c0 T __orb_offboard_control_setpoint
080905c8 T __orb_vehicle_attitude
080905d0 T __orb_optical_flow
080905d8 T __orb_debug_key_value
080905e0 T __orb_actuator_armed
080905e8 T __orb_vehicle_global_position_setpoint
080905f0 T __orb_vehicle_vicon_position
080905f8 T __orb_sensor_accel
08090600 T __orb_vehicle_rates_setpoint
08090608 T __orb_vehicle_local_position_setpoint
08090610 T __orb_home_position
08090618 T __orb_vehicle_attitude_setpoint
08090620 T __orb_actuator_controls_effective_0
08090628 T __orb_actuator_controls_effective_1
08090630 T __orb_manual_control_setpoint
08090638 T __orb_actuator_outputs_1
08090640 T __orb_actuator_outputs_2
08090648 T __orb_actuator_outputs_3
08090650 T __orb_sensor_mag
08090658 T __orb_vehicle_global_position
08090660 T __orb_rc_channels
08090668 T __orb_vehicle_gps_position
08090c0c T __orb_subsystem_info
08090c14 T __orb_sensor_gyro
08090c1c T __orb_vehicle_local_position
08090c24 T __orb_battery_status
08090c2c T __orb_sensor_combined
08090c34 T __orb_differential_pressure
08090c3c T __orb_vehicle_command
08090c44 T __orb_vehicle_status
08090c4c T __orb_actuator_outputs_0
08090c54 T __orb_sensor_baro
08090c5c T __orb_actuator_controls_0
08090c64 T __orb_actuator_controls_1
08090c70 t _ZTV10ORBDevNode
08090cb0 t _ZN12_GLOBAL__N_1L14__orb_orb_testE
08090cb8 t _ZTV12ORBDevMaster
08090cf8 T _ZTVN6device4CDevE
08090dd4 T _ZN6device4CDev4fopsE
08090df0 T _ZTVN6device6DeviceE
08090e00 T _ZTVN6device3I2CE
08090ed0 t g_bops
08090ee8 t g_cmd12
08090eec t g_taactu
08090efc t g_taactv
08090f1c t g_transpeedtu
08090f5c t g_cmd17
08090f60 t g_cmd18
08090f64 t g_cmd24
08090f68 t g_acmd23
08090f6c t g_cmd0
08090f70 t g_cmd1
08090fd4 t g_acmd41
08090fd8 t g_cmd25
08090fdc t g_cmd8
08090fe0 t g_cmd9
08090fe4 t g_cmd55
08090fe8 t g_transpeedru
08091008 t g_cmd58
0809100c t g_cmd16
0809100c t .LANCHOR4
08091060 t g_serialops
0809108c t npio2_hw
0809110c t two_over_pi
08091214 t init_jk
08091228 t PIo2
08091268 t atanlo
08091288 t atanhi
080912a8 t atanlo
080912b8 t atanhi
080912c8 t g_idlename
080912d4 T g_tasklisttable
08091380 t g_noname
080916e8 t g_sp2iops
08091760 t stm32_i2c1_config
08091784 t stm32_i2c3_config
08091970 t g_devops
08091970 t .LANCHOR0
0809198c t g_epops
0809198c t .LANCHOR1
08091b0c t g_erasetoeol
08091b10 T g_fmtargrequired
08091b38 t g_failure
08091b3c t g_exitstatus
08091b40 T g_fmtdeepnesting
08091b5c T g_fmtcmdnotfound
08091b5c t .LANCHOR3
08091b78 T g_nshgreeting
08091b8c T g_fmtcmdoutofmemory
08091ba4 T g_fmtnosuch
08091bc0 t g_redirect1
08091bc4 t g_delim
08091bc8 T g_fmtargrange
08091be8 t g_success
08091bec T g_fmtinternalerror
08091c08 T g_nshsyntax
080920cc T g_fmttoomanyargs
080920ec T g_fmtsignalrecvd
0809210c T g_fmtarginvalid
08092128 T g_fmtcontext
0809214c t g_redirect2
08092150 T g_fmtcmdfailed
08092168 T g_nshprompt
08092170 t g_cmdmap
08092484 t g_dd
080924c0 t g_statenames
080924e4 t g_ttypenames
08092644 t g_pwd
08092648 t g_home
08092648 t .LANCHOR0
0809264c t g_oldpwd
080928e4 T g_builtins
080936b4 t mavlink_fops
080936d0 t CSWTCH.75
080936d4 t CSWTCH.74
080936d8 t .LANCHOR28
080936d8 t mavlink_message_crcs.5888
080937ec t .LANCHOR9
080937ec t mavlink_message_crcs.5888
080938ec t CSWTCH.41
080938f0 t CSWTCH.40
080938f4 t autodetection_baudrates
08093914 t autodetection_gpsmodes
08095a88 t _ZTV6BMP180
08095f78 t _ZTV7HMC5883
08096768 t _ZTV7MPU60x0
080967b8 t _ZTV12MPU60x0_gyro
080967f8 t _ZTV6BlinkM
08096a60 t _ZTV3ADC
08096b30 t _ZTV7NAVSTIK
08096f00 t CSWTCH.90
08096f14 t CSWTCH.91
08096f20 t _ZTV3HIL
08096f60 t CSWTCH.63
08096f68 t CSWTCH.65
08098d20 t tests
08098e68 t _ZTV30AP_InertialSensor_UserInteract
08098e80 t _ZTV15DataFlash_Class
08098eb8 t _ZTV7AP_Baro
08098ee0 t _ZTV16DerivativeFilterIfLh7EE
08098f00 t _ZTV16FilterWithBufferIfLh7EE
08098f18 t _ZTV6FilterIfE
08098f28 t _ZTV13LowPassFilterIiE
08098f48 t _ZTV6FilterIiE
08098f58 t _ZL18test_menu_commands
080990ac t _ZN11GCS_MAVLINK8var_infoE
080991c4 t _ZL17log_menu_commands
08099214 t hal
08099218 t _ZL21__menu_name__log_menu
0809921c t var_info
08099e94 t _ZL22__menu_name__main_menu
0809c070 t _ZL22__menu_name__test_menu
0809c078 t _ZL19setup_menu_commands
0809c140 t _ZL23__menu_name__setup_menu
0809c148 t _ZL18main_menu_commands
0809c1ac t CSWTCH.1823
0809c1c0 t CSWTCH.1824
0809c1d4 t _ZN7AP_AHRS8var_infoE
0809c2d0 t _ZTV7AP_AHRS
0809c300 t _ZTV11AP_AHRS_DCM
0809c330 t _ZN11AP_Airspeed8var_infoE
0809c3bc t _ZN7AP_Baro8var_infoE
0809c410 t _ZTV21AP_Baro_MS5611_Serial
0809c438 t _ZTV18AP_Baro_MS5611_I2C
0809c460 t _ZTV18AP_Baro_MS5611_SPI
0809c488 t _ZTV15AP_Baro_Navstik
0809c4b0 t _ZN9AP_Camera8var_infoE
0809c540 t _ZTV18AP_Compass_Navstik
0809c570 t _ZN7Compass8var_infoE
0809c618 t _ZTV7Compass
0809c648 t .LANCHOR2
0809c648 t _ZL16declination_keys
0809c694 t .LANCHOR3
0809c694 t _ZL18declination_values
0809cadc t _ZL10exceptions
0809cdb8 t _ZL15exception_signs
0809ce20 t _ZTV12AP_GPS_UBLOX
0809ce38 t _ZN12AP_GPS_UBLOX17_ublox_set_binaryE
0809ce68 t _ZTV3GPS
0809ce80 t _ZTVN6AP_HAL12AnalogSourceE
0809ce98 t _ZTVN6AP_HAL8AnalogInE
0809ceb0 t _ZTVN6AP_HAL13ConsoleDriverE
0809cef8 t _ZTVN6AP_HAL12BetterStreamE
0809cf30 t _ZTVN6AP_HAL6StreamE
0809cf50 t _ZTVN6AP_HAL4GPIOE
0809cf70 t _ZTVN6AP_HAL13DigitalSourceE
0809cf88 t _ZTVN5Empty9EmptyGPIOE
0809cfa8 t _ZTVN5Empty18EmptyDigitalSourceE
0809cfc0 t _ZTVN5Empty14EmptyI2CDriverE
0809cff8 t _ZTVN6AP_HAL7RCInputE
0809d020 t _ZTVN6AP_HAL9SchedulerE
0809d068 t _ZTVN5Empty14EmptySemaphoreE
0809d080 t _ZTVN6AP_HAL15SPIDeviceDriverE
0809d0a8 t _ZTVN6AP_HAL9SemaphoreE
0809d0c0 t _ZTVN6AP_HAL16SPIDeviceManagerE
0809d0d0 t _ZTVN5Empty20EmptySPIDeviceDriverE
0809d0f8 t _ZTVN5Empty21EmptySPIDeviceManagerE
0809d108 t _ZTVN6AP_HAL7StorageE
0809d138 t _ZTVN6AP_HAL10UARTDriverE
0809d188 t _ZTVN5Empty15EmptyUARTDriverE
0809d1d8 t _ZTVN7Navstik15NavstikAnalogInE
0809d1f0 t _ZTVN7Navstik19NavstikAnalogSourceE
0809d208 t _ZTVN7Navstik20NavstikConsoleDriverE
0809d250 t _ZTVN6AP_HAL3HALE
0809d260 t _ZTVN6AP_HAL9I2CDriverE
0809d298 t _ZTVN6AP_HAL8RCOutputE
0809d2d0 t _ZTV11HAL_Navstik
0809d2e0 t _ZTVN7Navstik14NavstikRCInputE
0809d308 t _ZTVN7Navstik15NavstikRCOutputE
0809d340 t _ZTVN7Navstik16NavstikSchedulerE
0809d388 t _ZTVN7Navstik14NavstikStorageE
0809d3b8 t _ZTVN7Navstik17NavstikUARTDriverE
0809d408 t _ZTVN7Navstik11NavstikUtilE
0809d420 t .LANCHOR1
0809d420 t _ZN17AP_InertialSensor8var_infoE
0809d4c8 t _ZTV17AP_InertialSensor
0809d518 t CSWTCH.88
0809d518 t .LANCHOR2
0809d530 t _ZTV25AP_InertialSensor_Navstik
0809d580 t _ZTV36AP_InertialSensor_UserInteractStream
0809d598 t _ZN8AP_Mount8var_infoE
0809d790 t CSWTCH.189
0809d790 t .LANCHOR0
0809d798 t _ZTV15DataFlash_Empty
0809d7d0 t .LANCHOR5
0809d7d0 t _ZL27mavlink_message_crc_progmem
0809d8d0 t _ZN3PID8var_infoE
0809d95c t _ZN14RC_Channel_aux8var_infoE
0809d9b0 t _ZN10RC_Channel8var_infoE
0809da58 t _ZTVN6AP_HAL5PrintE
0809da68 V _ZTV5Mixer
0809da78 T _ZTV9NullMixer
0809da88 T _ZTV10MixerGroup
0809da98 t _ZN12_GLOBAL__N_1L13_config_hex_xE
0809dae0 t _ZN12_GLOBAL__N_1L14_config_octa_xE
0809db40 t .LANCHOR1
0809db40 t _ZN12_GLOBAL__N_1L19_config_rotor_countE
0809dbb0 t _ZN12_GLOBAL__N_1L16_config_hex_plusE
0809dbf8 t _ZN12_GLOBAL__N_1L17_config_octa_plusE
0809dc58 t _ZN12_GLOBAL__N_1L17_config_quad_plusE
0809dc88 t .LANCHOR2
0809dc88 t _ZN12_GLOBAL__N_113_config_indexE
0809dca0 t _ZN12_GLOBAL__N_1L14_config_quad_xE
0809dcd0 T _ZTV15MultirotorMixer
0809dce0 T _ZTV11SimpleMixer
0809dd34 t g_bdfsmap
0809dd4c T fat_operations
0809de24 T romfs_operations
0809ded0 T binfs_operations
0809df20 t fifo_fops
0809df90 t devnull_fops
0809df90 t .LANCHOR0
0809dfb8 t g_bops
0809e018 t g_bops
0809e060 t dp_h
0809e070 t dp_l
0809e080 t bp
0809e090 t dp_h
0809e098 t dp_l
0809e0a0 t bp
0809e0a8 t npio2_hw
0809e128 t two_over_pi
0809e440 t init_jk
0809e44c t PIo2
0809e478 t TWO52
0809e5cc t g_pthreadname
0809e5cc t .LANCHOR0
0809e5f8 t spaces
0809e664 A _etext
0809e664 A _sinit
0809e678 A _einit
0809e678 A __param_start
0809e678 r __param__MAV_TYPE
0809e684 r __param__MAV_COMP_ID
0809e690 r __param__MAV_SYS_ID
0809e69c r __param__RC_SCALE_YAW
0809e6a8 r __param__RC_SCALE_PITCH
0809e6b4 r __param__RC_SCALE_ROLL
0809e6c0 r __param__RC_MAP_AUX5
0809e6cc r __param__RC_MAP_AUX4
0809e6d8 r __param__RC_MAP_AUX3
0809e6e4 r __param__RC_MAP_AUX2
0809e6f0 r __param__RC_MAP_AUX1
0809e6fc r __param__RC_MAP_FLAPS
0809e708 r __param__RC_MAP_OFFB_SW
0809e714 r __param__RC_MAP_RTL_SW
0809e720 r __param__RC_MAP_SAS_SW
0809e72c r __param__RC_MAP_MAN_SW
0809e738 r __param__RC_MAP_MODE_SW
0809e744 r __param__RC_MAP_OVER_SW
0809e750 r __param__RC_MAP_YAW
0809e75c r __param__RC_MAP_THROTTLE
0809e768 r __param__RC_MAP_PITCH
0809e774 r __param__RC_MAP_ROLL
0809e780 r __param__BAT_V_SCALING
0809e78c r __param__RC_TYPE
0809e798 r __param__RC14_DZ
0809e7a4 r __param__RC14_REV
0809e7b0 r __param__RC14_MAX
0809e7bc r __param__RC14_TRIM
0809e7c8 r __param__RC14_MIN
0809e7d4 r __param__RC13_DZ
0809e7e0 r __param__RC13_REV
0809e7ec r __param__RC13_MAX
0809e7f8 r __param__RC13_TRIM
0809e804 r __param__RC13_MIN
0809e810 r __param__RC12_DZ
0809e81c r __param__RC12_REV
0809e828 r __param__RC12_MAX
0809e834 r __param__RC12_TRIM
0809e840 r __param__RC12_MIN
0809e84c r __param__RC11_DZ
0809e858 r __param__RC11_REV
0809e864 r __param__RC11_MAX
0809e870 r __param__RC11_TRIM
0809e87c r __param__RC11_MIN
0809e888 r __param__RC10_DZ
0809e894 r __param__RC10_REV
0809e8a0 r __param__RC10_MAX
0809e8ac r __param__RC10_TRIM
0809e8b8 r __param__RC10_MIN
0809e8c4 r __param__RC9_DZ
0809e8d0 r __param__RC9_REV
0809e8dc r __param__RC9_MAX
0809e8e8 r __param__RC9_TRIM
0809e8f4 r __param__RC9_MIN
0809e900 r __param__RC8_DZ
0809e90c r __param__RC8_REV
0809e918 r __param__RC8_MAX
0809e924 r __param__RC8_TRIM
0809e930 r __param__RC8_MIN
0809e93c r __param__RC7_DZ
0809e948 r __param__RC7_REV
0809e954 r __param__RC7_MAX
0809e960 r __param__RC7_TRIM
0809e96c r __param__RC7_MIN
0809e978 r __param__RC6_DZ
0809e984 r __param__RC6_REV
0809e990 r __param__RC6_MAX
0809e99c r __param__RC6_TRIM
0809e9a8 r __param__RC6_MIN
0809e9b4 r __param__RC5_DZ
0809e9c0 r __param__RC5_REV
0809e9cc r __param__RC5_MAX
0809e9d8 r __param__RC5_TRIM
0809e9e4 r __param__RC5_MIN
0809e9f0 r __param__RC4_DZ
0809e9fc r __param__RC4_REV
0809ea08 r __param__RC4_MAX
0809ea14 r __param__RC4_TRIM
0809ea20 r __param__RC4_MIN
0809ea2c r __param__RC3_DZ
0809ea38 r __param__RC3_REV
0809ea44 r __param__RC3_MAX
0809ea50 r __param__RC3_TRIM
0809ea5c r __param__RC3_MIN
0809ea68 r __param__RC2_DZ
0809ea74 r __param__RC2_REV
0809ea80 r __param__RC2_MAX
0809ea8c r __param__RC2_TRIM
0809ea98 r __param__RC2_MIN
0809eaa4 r __param__RC1_DZ
0809eab0 r __param__RC1_REV
0809eabc r __param__RC1_MAX
0809eac8 r __param__RC1_TRIM
0809ead4 r __param__RC1_MIN
0809eae0 r __param__SENS_ACC_ZSCALE
0809eaec r __param__SENS_ACC_YSCALE
0809eaf8 r __param__SENS_ACC_XSCALE
0809eb04 r __param__SENS_ACC_ZOFF
0809eb10 r __param__SENS_ACC_YOFF
0809eb1c r __param__SENS_ACC_XOFF
0809eb28 r __param__SENS_MAG_ZSCALE
0809eb34 r __param__SENS_MAG_YSCALE
0809eb40 r __param__SENS_MAG_XSCALE
0809eb4c r __param__SENS_MAG_ZOFF
0809eb58 r __param__SENS_MAG_YOFF
0809eb64 r __param__SENS_MAG_XOFF
0809eb70 r __param__SENS_GYRO_ZOFF
0809eb7c r __param__SENS_GYRO_YOFF
0809eb88 r __param__SENS_GYRO_XOFF
0809eb94 r __param__test
0809eba0 A __param_end
0809ebd0 A __exidx_start
0809ecb0 A _eronly
0809ecb0 A __exidx_end
20000000 A _sdata
20000000 d g_usart1priv
20000000 d .LANCHOR2
200000c0 d g_usart2priv
200000c0 d .LANCHOR1
20000180 d g_uart5priv
20000180 d .LANCHOR0
20000240 d g_dma
20000240 d .LANCHOR0
20000400 d param_topic
20000404 d param_icd
20000414 D __fdlib_version
20000418 d g_spi2dev
2000043c D stm32_i2c_ops
20000454 D stm32_i2c1_priv
20000480 D stm32_i2c3_priv
200004ac D g_daysbeforemonth
200004c8 D romfs_img
200060c8 D romfs_img_len
200060cc d g_builtin_parmsem
200060d8 d wpm
200060dc d gcs_link
200060e0 d .LANCHOR12
200060e0 d mavlink_system
200060e8 d cmd_pub
200060ec d pub_hil_global_pos
200060f0 d offboard_control_sp_pub
200060f4 d pub_hil_gps
200060f8 d vicon_position_pub
200060fc d pub_hil_attitude
20006100 d flow_pub
20006104 d pub_hil_sensors
20006108 d local_position_setpoint_pub.13468
2000610c d global_position_setpoint_pub.13467
20006110 d listeners
20006218 d .LANCHOR1
20006218 d mavlink_wpm_comp_id
2000621c d .LANCHOR6
2000621c d mavlink_system
20006224 d gcs_link
20006228 d vicon_position_pub
2000622c d flow_pub
20006230 d cmd_pub
20006234 d offboard_control_sp_pub
20006238 d .LANCHOR0
20006238 d prop.5190
20006244 d .LANCHOR7
20006244 d logging_enabled
20006248 d sysvector_file
2000624c d mavlink_fd
20006250 d _ZZN7HMC588317check_calibrationEvE3pub
20006254 d _ZZN6BlinkM3ledEvE16led_thread_ready
20006258 d _ZN6BlinkM12script_namesE
200062a8 d _ZZN6BlinkM3ledEvE12led_interval
200062ac d sensors
200062e8 d .LANCHOR22
200062e8 d _ZL4G_Dt
200062ec d _ZL18ground_start_count
200062ed d .LANCHOR53
200062ed d _ZL16takeoff_complete
200062ee d control_mode
200062f0 d _ZL11hold_course
200062f4 d _ZL12elevon1_trim
200062f8 d .LANCHOR36
200062f8 d _ZL16battery_voltage1
200062fc d _ZL8ch1_temp
200062fe d _ZL8ch2_temp
20006300 d .LANCHOR76
20006300 d _ZL12elevon2_trim
20006304 d .LANCHOR12
20006304 d _ZL12utilInstance
20006308 d _ZZL15longitude_scalePK8LocationE5scale
2000630c d .LANCHOR2
2000630c d mavlink_system
20006314 d g_bootcodeblob
20006398 D g_default_pthread_attr
200063a0 D optopt
200063a4 D optind
200063a8 A _edata
200063a8 A _sbss
200063a8 b g_usart1txbuffer
200065a8 b g_uart5txbuffer
200066a8 b g_uart5rxfifo
200066c8 b g_usart1rxfifo
200066e8 b g_usart2rxbuffer
200068e8 b g_usart2txbuffer
20006ae8 b g_usart2rxfifo
20006b08 b g_usart1rxbuffer
20006d08 b g_uart5rxbuffer
20006e08 B current_regs
20006e0c b result_k.5598
20006e10 b p5s
20006e14 b result.5597
20006e18 b freelist
20006e18 b .LANCHOR0
20006e58 b spi2
20006e60 b serial_dma_call.6382
20006e80 b callout_queue
20006e80 b .LANCHOR0
20006e88 b latency_counters
20006eac b latency_baseline
20006eb0 b base_time.5857
20006eb0 b .LANCHOR5
20006eb8 b last_count.5858
20006ebc b latency_actual
20006ec0 b _ZN12_GLOBAL__N_14gLEDE
20006ec4 b perf_counters
20006ecc b s.4770
20006ed0 b param_values
20006ed4 b param_user_file
20006ed8 B system_load
200072f0 b _ZN12_GLOBAL__N_15g_devE
200072f4 b _ZN6deviceL11irq_entriesE
20007334 B root_inode
20007338 b .LANCHOR0
20007338 b tree_sem
20007344 b g_mmcsdslot
2000737c B g_pendingtasks
20007384 B g_lastpid
20007388 B g_waitingformqnotempty
20007390 B g_waitingformqnotfull
20007398 B g_waitingforsemaphore
200073a0 B g_pidhash
200074a0 B g_delayeddeallocations
200074a8 B g_readytorun
200074b0 B g_waitingforsignal
200074b8 B g_inactivetasks
200074c0 b g_idletcb
20007688 b g_irqerrno
2000768c B g_work
200076a4 B g_basetime
200076a4 b .LANCHOR1
200076ac B g_system_timer
200076ac b .LANCHOR0
200076b0 B g_tickbias
200076b0 b .LANCHOR2
200076b4 B g_irqvector
20007840 B g_join_semaphore
20007840 b .LANCHOR3
2000784c B g_pthread_tail
2000784c b .LANCHOR1
20007850 B g_pthread_num_keys
20007850 b .LANCHOR2
20007854 B g_pthread_head
20007854 b .LANCHOR0
20007858 B g_sigpendingirqaction
20007858 b .LANCHOR3
20007860 b g_sigpendingirqsignalalloc
20007860 b .LANCHOR9
20007864 b g_sigpendingirqactionalloc
20007864 b .LANCHOR7
20007868 b g_sigpendingsignalalloc
20007868 b .LANCHOR8
2000786c B g_sigfreeaction
2000786c b .LANCHOR1
20007874 B g_sigpendingaction
20007874 b .LANCHOR2
2000787c b g_sigactionalloc
2000787c b .LANCHOR0
20007880 B g_sigpendingsignal
20007880 b .LANCHOR4
20007888 b g_sigpendingactionalloc
20007888 b .LANCHOR6
2000788c B g_sigpendingirqsignal
2000788c b .LANCHOR5
20007894 B g_wdfreelist
2000789c B g_wdpool
200078a0 B g_wdactivelist
200078a8 b g_otgfsdev
200078a8 b .LANCHOR2
200079e8 B g_heapsize
200079e8 b .LANCHOR1
200079ec B g_nregions
200079ec b .LANCHOR0
200079f0 B g_heapstart
200079f0 b .LANCHOR2
200079f8 B g_heapend
200079f8 b .LANCHOR3
20007a00 B g_nodelist
20007b30 b g_counts_held
20007b30 b .LANCHOR0
20007b34 b g_holder
20007b34 b .LANCHOR1
20007b38 b g_mm_semaphore
20007b38 b .LANCHOR2
20007b44 b g_iobuffer
20007d44 b g_builtin_execsem
20007d50 b g_builtin_parms
20007d68 b chan
20007d68 b .LANCHOR21
20007d69 b thread_should_exit
20007d6c b .LANCHOR1
20007d6c b m_mavlink_status.13616
20007d9c b lb
20007dac b mavlink_task
20007db0 b baudrate
20007db4 b initialized.13624
20007db8 b param_system_type.13627
20007dbc b .LANCHOR19
20007dbc b uorb_receive_thread
20007dc0 b mavlink_hil_enabled
20007dc4 b total_counter.13569
20007dc8 b wpm_s
200082c0 b mavlink_link_mode
200082c4 b param_system_id.13625
200082c8 b .LANCHOR0
200082c8 b m_mavlink_buffer.13620
20008708 b .LANCHOR2
20008708 b thread_running
20008709 b .LANCHOR15
20008709 b mavlink_link_termination_allowed
2000870c b .LANCHOR7
2000870c b uart
20008710 b param_component_id.13626
20008714 b .LANCHOR18
20008714 b receive_thread
20008718 b .LANCHOR0
20008718 b mavlink_param_queue_index
20008720 b tx_msg.12726
20008830 b name_buf.12724
20008840 b vicon_position
20008868 b hil_counter.13491
20008870 b hil_sensors
200088f8 b hil_counter.13487
20008900 b .LANCHOR13
20008900 b old_timestamp.13482
20008908 b status
20008918 b old_timestamp.13493
20008920 b offboard_control_sp
20008950 b hil_frames.13481
20008950 b .LANCHOR12
20008958 b hil_global_pos
20008990 b hil_frames.13492
20008992 b hil_frames.13488
20008994 b vcmd
200089b8 b hil_attitude
20008a20 b rc_pub.13506
20008a28 b hil_gps
20008ae0 b hil_counter.13480
20008ae8 b old_timestamp.13489
20008af0 b mc_pub.13508
20008af4 b .LANCHOR0
20008af4 b missionlib_msg_buf
20008bfc b .LANCHOR0
20008bfc b mavlink_subs
20008c4c b gyro_counter.13344
20008c50 b .LANCHOR2
20008c50 b rc_sub
20008c54 b gps_counter
20008c58 b .LANCHOR4
20008c58 b status_sub
20008c5c b sensors_raw_counter
20008c60 b attitude_counter
20008c64 b accel_counter.13343
20008c68 b .LANCHOR3
20008c68 b rc
20008e08 b baro_counter.13346
20008e10 b global_pos
20008e48 b armed
20008e48 b .LANCHOR1
20008e50 b rc_raw
20008e88 b .LANCHOR6
20008e88 b last_sensor_timestamp
20008e90 b mag_counter.13345
20008e98 b local_pos
20008ee0 b .LANCHOR8
20008ee0 b v_status
20008f60 b counter.11830
20008f64 b .LANCHOR0
20008f64 b m_mavlink_status.5803
20008f94 b .LANCHOR2
20008f94 b thread_running
20008f98 b baudrate
20008f9c b mavlink_task
20008fa0 b .LANCHOR8
20008fa0 b mavlink_link_termination_allowed
20008fa4 b .LANCHOR5
20008fa4 b uart
20008fa8 b chan
20008fb0 b .LANCHOR0
20008fb0 b m_mavlink_buffer.13386
200093f0 b .LANCHOR10
200093f0 b receive_thread
200093f4 b mavlink_link_mode
200093f5 b thread_should_exit
200093f8 b .LANCHOR1
200093f8 b m_mavlink_status.13382
20009428 b vicon_position
20009450 b status
20009460 b offboard_control_sp
20009490 b vcmd
200094b4 b thread_running
200094b8 b deamon_task
200094bc b gps_mode_success
200094bc b .LANCHOR6
200094bd b .LANCHOR7
200094bd b terminate_gps_thread
200094be b gps_mode_try_all
200094be b .LANCHOR4
200094c0 b current_gps_speed
200094c4 b gps_verbose
200094c5 b thread_should_exit
200094c6 b gps_baud_try_all
200094c6 b .LANCHOR5
200094c8 b .LANCHOR3
200094c8 b ubx_gps
200094cc b ubx_mutex
200094d0 b .LANCHOR0
200094d0 b ubx_state
200094d4 b .LANCHOR1
200094d4 b ubx_config_state
200094d8 b mtk_gps
200094dc b .LANCHOR0
200094dc b mtk_state
200094e0 b mtk_mutex
200094e4 b nmea_state
200094e8 b nmea_gps
200094ec b nmea_mutex
200094f0 b actuator_controls_bytes
200094f0 b .LANCHOR4
200094f4 b .LANCHOR12
200094f4 b thread_running
200094f8 b .LANCHOR1
200094f8 b sysvector_bytes
200094fc b sysvector_mutex
2000950c b sysvector_cond
20009518 b blackbox_file_bytes
20009518 b .LANCHOR3
2000951c b actuator_outputs_bytes
2000951c b .LANCHOR2
20009520 b .LANCHOR0
20009520 b sensor_combined_bytes
20009524 b .LANCHOR14
20009524 b lb
20009534 b .LANCHOR8
20009534 b thread_should_exit
20009538 b deamon_task
20009540 b .LANCHOR5
20009540 b starttime
20009548 b .LANCHOR0
20009548 b _ZN7sensors9g_sensorsE
2000954c b i2c
20009550 b _ZN6bmp1805g_devE
20009554 b _ZN7hmc58835g_devE
20009558 b _ZN7mpu60x05g_devE
2000955c b _ZZN6BlinkM3ledEvE17topic_initialized
20009560 b _ZZN6BlinkM3ledEvE11t_led_blink
20009564 b _ZZN6BlinkM3ledEvE22no_data_vehicle_status
20009568 b _ZZN6BlinkM3ledEvE19led_thread_runcount
2000956c b _ZN12_GLOBAL__N_18g_blinkmE
20009570 b _ZZN6BlinkM3ledEvE27vehicle_gps_position_sub_fd
20009574 b _ZZN6BlinkM3ledEvE11t_led_color
2000958c b _ZZN6BlinkM3ledEvE21vehicle_status_sub_fd
20009590 b _ZZN6BlinkM3ledEvE23detected_cells_runcount
20009594 b _ZZN6BlinkM3ledEvE28no_data_vehicle_gps_position
20009598 b _ZZN6BlinkM3ledEvE22detected_cells_blinked
2000959c b _ZZN6BlinkM3ledEvE12num_of_cells
200095a0 b _ZN12_GLOBAL__N_15g_adcE
200095a4 b .LANCHOR0
200095a4 b _ZN12_GLOBAL__N_15g_fmuE
200095a8 b .LANCHOR1
200095a8 b _ZN12_GLOBAL__N_15g_hilE
200095ac b sample_data
200096ac b lasttime.5782
200096b0 b basetime.5781
200096b8 b .LANCHOR62
200096b8 b _ZL18target_altitude_cm
200096bc b .LANCHOR51
200096bc b _ZL16bearing_error_cd
200096c0 b _ZZL16mavlink_delay_cbvE7last_5s
200096c4 b _ZL17last_heartbeat_ms
200096c8 b _ZL13have_position
200096cc b .LANCHOR37
200096cc b _ZL13current_amps1
200096d0 b _ZL18rc_override_active
200096d1 b _ZL21non_nav_command_index
200096d4 b .LANCHOR8
200096d4 b _ZL11current_loc
200096e4 b _ZZL18radio_input_switchvE7bouncer
200096e8 b _ZZL16mavlink_delay_cbvE9last_50hz
200096ec b .LANCHOR6
200096ec b _ZL15condition_value
200096f0 b _ZL17airspeed_nudge_cm
200096f2 b _ZL20training_manual_roll
200096f3 b _ZL15failsafeCounter
200096f4 b _ZL12ch3_failsafe
200096f8 b _ZL18ch3_failsafe_timer
200096fc b _ZL14mavlink_active
20009700 b .LANCHOR26
20009700 b _ZL10setup_menu
20009710 b _ZL4load
20009714 b .LANCHOR1
20009714 b _ZL1g
200099c4 b ahrs
200099c4 b .LANCHOR10
20009b48 b .LANCHOR83
20009b48 b _ZL14nav_command_ID
20009b4c b _ZL18target_airspeed_cm
20009b50 b .LANCHOR121
20009b50 b _ZL17fast_loopTimer_ms
20009b54 b camera_mount
20009bcc b _ZL10loiter_sum
20009bd0 b .LANCHOR3
20009bd0 b vcc_pin
20009bd4 b .LANCHOR33
20009bd4 b _ZL5g_gps
20009bd8 b .LANCHOR15
20009bd8 b _ZL14mainLoop_count
20009bda b _ZL13land_complete
20009bdc b param_loader
20009be0 b gcs3
20009c74 b .LANCHOR64
20009c74 b _ZL16wp_totalDistance
20009c78 b .LANCHOR17
20009c78 b _ZL13gps_fix_count
20009c7c b .LANCHOR27
20009c7c b _ZL8log_menu
20009c8c b _ZL16slow_loopCounter
20009c90 b gcs0
20009d24 b .LANCHOR38
20009d24 b _ZL14current_total1
20009d28 b _ZL14geofence_state
20009d2c b _ZL21superslow_loopCounter
20009d2d b _ZZ14failsafe_checkjE11in_failsafe
20009d30 b .LANCHOR25
20009d30 b _ZL9test_menu
20009d40 b .LANCHOR24
20009d40 b _ZL13receiver_rssi
20009d44 b _ZZL16mavlink_delay_cbvE8last_1hz
20009d48 b relay
20009d4c b _ZL11rc_override
20009d5c b .LANCHOR31
20009d5c b _ZL11event_state
20009d70 b _ZL14condition_rate
20009d72 b _ZL11home_is_set
20009d73 b _ZL19throttle_suppressed
20009d74 b _ZL21airspeed_energy_error
20009d78 b _ZL21fast_loopTimeStamp_ms
20009d7c b _ZL9main_menu
20009d8c b .LANCHOR21
20009d8c b _ZL4home
20009d9c b .LANCHOR65
20009d9c b _ZL21old_target_bearing_cd
20009da0 b .LANCHOR77
20009da0 b _ZL14loiter_time_ms
20009da4 b .LANCHOR14
20009da4 b wp_distance
20009da8 b .LANCHOR16
20009da8 b _ZL8G_Dt_max
20009dac b .LANCHOR5
20009dac b _ZL15condition_start
20009db0 b _ZL14throttle_nudge
20009db4 b .LANCHOR44
20009db4 b _ZL14nav_bearing_cd
20009db8 b _ZL8failsafe
20009dbc b _ZL12energy_error
20009dc0 b _ZL18medium_loopCounter
20009dc1 b .LANCHOR85
20009dc1 b _ZL17nav_command_index
20009dc4 b .LANCHOR9
20009dc4 b _ZL7next_WP
20009dd4 b cliSerial
20009dd4 b .LANCHOR0
20009dd8 b _ZZL19read_control_switchvE16switch_debouncer
20009ddc b .LANCHOR100
20009ddc b _ZL18loiter_time_max_ms
20009de0 b .LANCHOR97
20009de0 b _ZL12loiter_total
20009de4 b airspeed
20009de4 b .LANCHOR46
20009dfc b _ZL16crosstrack_error
20009e00 b inverted_flight
20009e04 b camera
20009e10 b _ZL9GPS_light
20009e14 b .LANCHOR54
20009e14 b _ZL9barometer
20009e80 b _ZL20delta_ms_medium_loop
20009e81 b _ZL11crash_timer
20009e84 b .LANCHOR23
20009e84 b rssi_analog_source
20009e88 b .LANCHOR63
20009e88 b _ZL18offset_altitude_cm
20009e8c b .LANCHOR80
20009e8c b _ZL18non_nav_command_ID
20009e8e b _ZL16ground_start_avg
20009e90 b .LANCHOR122
20009e90 b _ZL18delta_ms_fast_loop
20009e94 b _ZL13mavlink_queue
20009ec8 b .LANCHOR59
20009ec8 b _ZL15altitude_filter
20009ed8 b g_gps_driver
20009f80 b _ZZ14failsafe_checkjE19last_mainLoop_count
20009f84 b .LANCHOR99
20009f84 b _ZL16takeoff_altitude
20009f88 b _ZL14demoing_servos
20009f90 b ins
20009f90 b .LANCHOR60
20009fe8 b .LANCHOR45
20009fe8 b _ZL17altitude_error_cm
20009fec b DataFlash
20009fec b .LANCHOR20
2000a008 b _ZL19medium_loopTimer_ms
2000a010 b .LANCHOR70
2000a010 b _ZL7compass
2000a0d0 b .LANCHOR43
2000a0d0 b _ZL17target_bearing_cd
2000a0d4 b .LANCHOR19
2000a0d4 b _ZL14perf_mon_timer
2000a0d8 b _ZZ14failsafe_checkjE14last_timestamp
2000a0dc b .LANCHOR98
2000a0dc b _ZL16takeoff_pitch_cd
2000a0e0 b .LANCHOR120
2000a0e0 b pitot_analog_source
2000a0e4 b .LANCHOR18
2000a0e4 b _ZL7pmTest1
2000a0e8 b .LANCHOR48
2000a0e8 b _ZL12nav_pitch_cd
2000a0ec b _ZL22groundspeed_undershoot
2000a0f0 b _ZL21training_manual_pitch
2000a0f4 b .LANCHOR29
2000a0f4 b _ZL7prev_WP
2000a104 b _ZL12loiter_delta
2000a108 b .LANCHOR84
2000a108 b _ZL16next_nav_command
2000a118 b .LANCHOR119
2000a118 b oldSwitchPosition
2000a119 b _ZL16counter_one_herz
2000a11c b batt_curr_pin
2000a11c b .LANCHOR73
2000a120 b .LANCHOR61
2000a120 b _ZL9guided_WP
2000a130 b batt_volt_pin
2000a130 b .LANCHOR72
2000a134 b .LANCHOR30
2000a134 b _ZL21crosstrack_bearing_cd
2000a138 b .LANCHOR7
2000a138 b _ZL19next_nonnav_command
2000a148 b _ZL17airspeed_error_cm
2000a14c b .LANCHOR102
2000a14c b _ZL16in_mavlink_delay
2000a150 b .LANCHOR34
2000a150 b _ZL11nav_roll_cd
2000a154 b _ZN14AP_Baro_MS56113spiE
2000a160 b _ZN14AP_Baro_MS56113i2cE
2000a168 b _ZZN18AP_Baro_MS5611_SPI20sem_take_nonblockingEvE11semfail_ctr
2000a16c b _ZZN18AP_Baro_MS5611_I2C20sem_take_nonblockingEvE11semfail_ctr
2000a170 b _ZN15AP_Baro_Navstik13_pressure_sumE
2000a178 b _ZN15AP_Baro_Navstik15_last_timestampE
2000a180 b _ZN15AP_Baro_Navstik16_temperature_sumE
2000a184 b _ZN15AP_Baro_Navstik14_in_accumulateE
2000a188 b _ZN15AP_Baro_Navstik11_last_timerE
2000a18c b _ZN15AP_Baro_Navstik10_sum_countE
2000a190 b _ZN15AP_Baro_Navstik8_baro_fdE
2000a194 b _ZN7Navstik15NavstikAnalogIn9_last_runE
2000a198 b _ZN7Navstik15NavstikAnalogIn7_adc_fdE
2000a19c b _ZN7Navstik15NavstikAnalogIn9_channelsE
2000a1bc b .LANCHOR6
2000a1bc b _ZL13storageDriver
2000b1d0 b AP_HAL_NAVSTIK
2000b208 b .LANCHOR0
2000b208 b _ZL11uartADriver
2000b238 b .LANCHOR8
2000b238 b _ZL10gpioDriver
2000b23c b _ZL12i2cSemaphore
2000b244 b .LANCHOR10
2000b244 b _ZL11rcoutDriver
2000b278 b .LANCHOR5
2000b278 b _ZL8analogIn
2000b27c b .LANCHOR16
2000b27c b _ZL11daemon_task
2000b280 b .LANCHOR1
2000b280 b _ZL11uartBDriver
2000b2b0 b .LANCHOR17
2000b2b0 b _ZL12ran_overtime
2000b2b8 b .LANCHOR11
2000b2b8 b _ZL17schedulerInstance
2000b310 b .LANCHOR14
2000b310 b _ZL14thread_running
2000b314 b .LANCHOR4
2000b314 b _ZL16spiDeviceManager
2000b324 b .LANCHOR2
2000b324 b _ZL11uartCDriver
2000b328 b .LANCHOR7
2000b328 b _ZL13consoleDriver
2000b330 b .LANCHOR3
2000b330 b _ZL9i2cDriver
2000b338 b _px4_thread_should_exit
2000b340 b .LANCHOR9
2000b340 b _ZL10rcinDriver
2000b368 b ppm_buffer
2000b3a8 b ppm_last_valid_decode
2000b3b0 b _ZN25AP_InertialSensor_MPU600010quaternionE
2000b3c0 b _ZN25AP_InertialSensor_Navstik21_last_accel_timestampE
2000b3c8 b _ZN25AP_InertialSensor_Navstik20_last_gyro_timestampE
2000b3d0 b _ZN25AP_InertialSensor_Navstik10_accel_sumE
2000b3dc b .LANCHOR5
2000b3dc b _ZN25AP_InertialSensor_Navstik16_accel_sum_countE
2000b3e0 b _ZN25AP_InertialSensor_Navstik14_in_accumulateE
2000b3e4 b .LANCHOR8
2000b3e4 b _ZN25AP_InertialSensor_Navstik15_gyro_sum_countE
2000b3e8 b _ZN25AP_InertialSensor_Navstik8_gyro_fdE
2000b3ec b _ZN25AP_InertialSensor_Navstik9_accel_fdE
2000b3f0 b _ZN25AP_InertialSensor_Navstik9_gyro_sumE
2000b3fc b _ZZL15longitude_scalePK8LocationE8last_lat
2000b400 b .LANCHOR1
2000b400 b _ZN4Menu5_argvE
2000b430 b .LANCHOR2
2000b430 b _ZN4Menu6_inbufE
2000b450 b .LANCHOR0
2000b450 b _ZN4Menu5_portE
2000b454 b _ZZN8AP_Mount21update_mount_positionEvE10mount_open
2000b455 b .LANCHOR3
2000b455 b _ZN8AP_Param9_num_varsE
2000b458 b .LANCHOR1
2000b458 b _ZN8AP_Param9_var_infoE
2000b45c b .LANCHOR2
2000b45c b _ZN8AP_Param12_eeprom_sizeE
2000b460 b .LANCHOR4
2000b460 b _ZZ26mavlink_get_channel_statusE16m_mavlink_status
2000b478 b .LANCHOR3
2000b478 b _ZZ26mavlink_get_channel_bufferhE16m_mavlink_buffer
2000b558 b mavlink_comm_1_port
2000b55c b mavlink_comm_0_port
2000b560 b _ZL13_aux_channels
2000b57c b rc_ch
2000b59c b info.4229
2000b5b0 b g_randint1
2000b5b0 b .LANCHOR0
2000b5b4 b g_optptr
2000b5b8 b g_binitialized
2000b5bc B optarg
2000b5c0 b .LANCHOR0
2000b5c0 b tm.4080
2000b5d8 b g_retchar
2000b5dc b g_retchar
2000b5e0 A _ebss
